(dp0
S'box'
p1
ccopy_reg
_reconstructor
p2
(c__main__
DemonstrationProgram
p3
c__builtin__
object
p4
Ntp5
Rp6
(dp7
S'actions'
p8
(lp9
g2
(c__main__
GripperAction
p10
g4
Ntp11
Rp12
(dp13
S'open'
p14
I01
sbag2
(c__main__
MoveAction
p15
g4
Ntp16
Rp17
(dp18
S'tagId'
p19
NsS'pose'
p20
g2
(cgeometry_msgs.msg._PoseStamped
PoseStamped
p21
g4
Ntp22
Rp23
(lp24
g2
(cstd_msgs.msg._Header
Header
p25
g4
Ntp26
Rp27
(lp28
I0
ag2
(cgenpy.rostime
Time
p29
g4
Ntp30
Rp31
(lp32
I0
aI0
abaS'base_link'
p33
abag2
(cgeometry_msgs.msg._Pose
Pose
p34
g4
Ntp35
Rp36
(lp37
(F0.45771761589962373
F0.385805962629619
F0.7581525860976694
tp38
a(F-0.44385899083354724
F-0.42877772602147085
F-0.34403357892193037
F0.707657936080879
tp39
ababsS'absolute'
p40
I01
sS'former_tag_pose'
p41
Nsbag2
(g15
g4
Ntp42
Rp43
(dp44
g19
Nsg20
g2
(g21
g4
Ntp45
Rp46
(lp47
g2
(g25
g4
Ntp48
Rp49
(lp50
I0
ag2
(g29
g4
Ntp51
Rp52
(lp53
I0
aI0
abag33
abag2
(g34
g4
Ntp54
Rp55
(lp56
(F0.5628518740159586
F0.24214051869652284
F1.2511031498210161
tp57
a(F0.9357006426135034
F-0.3401990824321544
F0.0928889400754119
F-0.010026790945439394
tp58
ababsg40
I01
sg41
Nsbag2
(g15
g4
Ntp59
Rp60
(dp61
g19
Nsg20
g2
(g21
g4
Ntp62
Rp63
(lp64
g2
(g25
g4
Ntp65
Rp66
(lp67
I0
ag2
(g29
g4
Ntp68
Rp69
(lp70
I0
aI0
abag33
abag2
(g34
g4
Ntp71
Rp72
(lp73
(F0.902279623915341
F-0.010517422817273591
F0.9766743088897547
tp74
a(F0.9154566461894957
F-0.3210270475957377
F-0.2117051530211477
F-0.11858200472136074
tp75
ababsg40
I01
sg41
Nsbag2
(g10
g4
Ntp76
Rp77
(dp78
g14
I00
sbag2
(g15
g4
Ntp79
Rp80
(dp81
g19
Nsg20
g2
(g21
g4
Ntp82
Rp83
(lp84
g2
(g25
g4
Ntp85
Rp86
(lp87
I0
ag2
(g29
g4
Ntp88
Rp89
(lp90
I0
aI0
abag33
abag2
(g34
g4
Ntp91
Rp92
(lp93
(F0.6154079168540367
F0.21327557994322832
F1.230769778458102
tp94
a(F0.9504003684201986
F-0.27036256202699044
F0.15188963232631042
F0.023932495748054762
tp95
ababsg40
I01
sg41
Nsbag2
(c__main__
TuckAction
p96
g4
Ntp97
Rp98
asbsS'front'
p99
g2
(g3
g4
Ntp100
Rp101
(dp102
g8
(lp103
g2
(g10
g4
Ntp104
Rp105
(dp106
S'open'
p107
I01
sbag2
(g15
g4
Ntp108
Rp109
(dp110
S'tagId'
p111
I0
sS'pose'
p112
g2
(g21
g4
Ntp113
Rp114
(lp115
g2
(g25
g4
Ntp116
Rp117
(lp118
I0
ag2
(g29
g4
Ntp119
Rp120
(lp121
I0
aI0
abaS'base_link'
p122
abag2
(g34
g4
Ntp123
Rp124
(lp125
(F0.1849255193278141
F0.15072710434355516
F0.8722301008847899
tp126
a(F-0.044061437993182004
F-0.0494921157990678
F-0.019618175793956798
F0.9976092658622524
tp127
ababsS'absolute'
p128
I00
sS'former_tag_pose'
p129
g2
(car_track_alvar_msgs.msg._AlvarMarker
AlvarMarker
p130
g4
Ntp131
Rp132
(lp133
g2
(g25
g4
Ntp134
Rp135
(lp136
I0
ag2
(g29
g4
Ntp137
Rp138
(lp139
I1496017533
aI134590857
abaS'base_link'
p140
abaI0
aI0
ag2
(g21
g4
Ntp141
Rp142
(lp143
g2
(g25
g4
Ntp144
Rp145
(lp146
I0
ag2
(g29
g4
Ntp147
Rp148
(lp149
I0
aI0
abaS''
p150
abag2
(g34
g4
Ntp151
Rp152
(lp153
g2
(cgeometry_msgs.msg._Point
Point
p154
g4
Ntp155
Rp156
(lp157
F0.6861920726754278
aF0.08410455930350072
aF0.9317233364045597
abag2
(cgeometry_msgs.msg._Quaternion
Quaternion
p158
g4
Ntp159
Rp160
(lp161
F0.7227898274152103
aF-0.0020000583800490784
aF-0.6897984353640779
aF-0.04182085270337108
ababababsbag2
(g15
g4
Ntp162
Rp163
(dp164
g111
I0
sg112
g2
(g21
g4
Ntp165
Rp166
(lp167
g2
(g25
g4
Ntp168
Rp169
(lp170
I0
ag2
(g29
g4
Ntp171
Rp172
(lp173
I0
aI0
abag122
abag2
(g34
g4
Ntp174
Rp175
(lp176
(F0.19303580323200237
F-0.05680492987476359
F0.8247162669373516
tp177
a(F-0.27832179760130876
F-0.08240605636557698
F0.0122644652251363
F0.9568677033670804
tp178
ababsg128
I00
sg129
g2
(g130
g4
Ntp179
Rp180
(lp181
g2
(g25
g4
Ntp182
Rp183
(lp184
I0
ag2
(g29
g4
Ntp185
Rp186
(lp187
I1496017611
aI715464108
abaS'base_link'
p188
abaI0
aI0
ag2
(g21
g4
Ntp189
Rp190
(lp191
g2
(g25
g4
Ntp192
Rp193
(lp194
I0
ag2
(g29
g4
Ntp195
Rp196
(lp197
I0
aI0
abag150
abag2
(g34
g4
Ntp198
Rp199
(lp200
g2
(g154
g4
Ntp201
Rp202
(lp203
F0.6754569942686037
aF-0.1572197683959744
aF0.8738015457169239
abag2
(g158
g4
Ntp204
Rp205
(lp206
F-0.6988786192551173
aF0.004074244711926421
aF0.7136697338527064
aF-0.04719732048215661
ababababsbag2
(g15
g4
Ntp207
Rp208
(dp209
g111
I0
sg112
g2
(g21
g4
Ntp210
Rp211
(lp212
g2
(g25
g4
Ntp213
Rp214
(lp215
I0
ag2
(g29
g4
Ntp216
Rp217
(lp218
I0
aI0
abag122
abag2
(g34
g4
Ntp219
Rp220
(lp221
(F0.39530850501618675
F-0.14910635859217042
F0.8388966680655776
tp222
a(F-0.05090382157403684
F0.0276181753541753
F-0.016357917594273078
F0.9981875855124845
tp223
ababsg128
I00
sg129
g2
(g130
g4
Ntp224
Rp225
(lp226
g2
(g25
g4
Ntp227
Rp228
(lp229
I0
ag2
(g29
g4
Ntp230
Rp231
(lp232
I1496017654
aI559754364
abaS'base_link'
p233
abaI0
aI0
ag2
(g21
g4
Ntp234
Rp235
(lp236
g2
(g25
g4
Ntp237
Rp238
(lp239
I0
ag2
(g29
g4
Ntp240
Rp241
(lp242
I0
aI0
abag150
abag2
(g34
g4
Ntp243
Rp244
(lp245
g2
(g154
g4
Ntp246
Rp247
(lp248
F0.6750542457693633
aF-0.1573962507275581
aF0.8754992186972226
abag2
(g158
g4
Ntp249
Rp250
(lp251
F0.46507844127880643
aF-0.5258018009041492
aF-0.4371355779070368
aF0.5622695049097991
ababababsbag2
(g15
g4
Ntp252
Rp253
(dp254
g111
I0
sg112
g2
(g21
g4
Ntp255
Rp256
(lp257
g2
(g25
g4
Ntp258
Rp259
(lp260
I0
ag2
(g29
g4
Ntp261
Rp262
(lp263
I0
aI0
abag122
abag2
(g34
g4
Ntp264
Rp265
(lp266
(F0.5404063183421436
F-0.14648085397873725
F0.8259404909007203
tp267
a(F-0.039611799126482335
F0.033880416490549396
F-0.02582385002695631
F0.9983066420284779
tp268
ababsg128
I00
sg129
g2
(g130
g4
Ntp269
Rp270
(lp271
g2
(g25
g4
Ntp272
Rp273
(lp274
I0
ag2
(g29
g4
Ntp275
Rp276
(lp277
I1496017680
aI252809994
abaS'base_link'
p278
abaI0
aI0
ag2
(g21
g4
Ntp279
Rp280
(lp281
g2
(g25
g4
Ntp282
Rp283
(lp284
I0
ag2
(g29
g4
Ntp285
Rp286
(lp287
I0
aI0
abag150
abag2
(g34
g4
Ntp288
Rp289
(lp290
g2
(g154
g4
Ntp291
Rp292
(lp293
F0.6812854242026336
aF-0.1518002213728251
aF0.8745625452780321
abag2
(g158
g4
Ntp294
Rp295
(lp296
F0.7170894990131991
aF-0.001667216264814658
aF-0.6968983599407472
aF-0.0106088032700448
ababababsbag2
(g10
g4
Ntp297
Rp298
(dp299
g107
I00
sbag2
(g15
g4
Ntp300
Rp301
(dp302
g111
Nsg112
g2
(g21
g4
Ntp303
Rp304
(lp305
g2
(g25
g4
Ntp306
Rp307
(lp308
I0
ag2
(g29
g4
Ntp309
Rp310
(lp311
I0
aI0
abag122
abag2
(g34
g4
Ntp312
Rp313
(lp314
(F0.33214584886850906
F-0.131031470159653
F0.9461494736599305
tp315
a(F0.0006226183258941962
F-0.04335464927555006
F0.016497538816039325
F0.9989233293629834
tp316
ababsg128
I01
sg129
Nsbag2
(g15
g4
Ntp317
Rp318
(dp319
g111
Nsg112
g2
(g21
g4
Ntp320
Rp321
(lp322
g2
(g25
g4
Ntp323
Rp324
(lp325
I0
ag2
(g29
g4
Ntp326
Rp327
(lp328
I0
aI0
abag122
abag2
(g34
g4
Ntp329
Rp330
(lp331
(F0.19112393733051442
F-0.08733220605366096
F0.8044226046886778
tp332
a(F0.4311189103438366
F0.7495810687905624
F-0.2277105690873094
F0.4476746622053505
tp333
ababsg128
I01
sg129
Nsbag2
(g10
g4
Ntp334
Rp335
(dp336
g107
I01
sbasbsS'leftpick'
p337
g2
(g3
g4
Ntp338
Rp339
(dp340
g8
(lp341
g2
(g10
g4
Ntp342
Rp343
(dp344
S'open'
p345
I01
sbag2
(g15
g4
Ntp346
Rp347
(dp348
S'tagId'
p349
I14
sS'pose'
p350
g2
(g21
g4
Ntp351
Rp352
(lp353
g2
(g25
g4
Ntp354
Rp355
(lp356
I0
ag2
(g29
g4
Ntp357
Rp358
(lp359
I0
aI0
abaS'base_link'
p360
abag2
(g34
g4
Ntp361
Rp362
(lp363
(F0.20800545269964138
F0.1349921318770097
F0.830525560359129
tp364
a(F0.08892400566884794
F-0.02717771529019318
F-0.04478858719272028
F0.9946596782139567
tp365
ababsS'absolute'
p366
I00
sS'former_tag_pose'
p367
g2
(g130
g4
Ntp368
Rp369
(lp370
g2
(g25
g4
Ntp371
Rp372
(lp373
I0
ag2
(g29
g4
Ntp374
Rp375
(lp376
I1496018275
aI998979799
abaS'base_link'
p377
abaI14
aI0
ag2
(g21
g4
Ntp378
Rp379
(lp380
g2
(g25
g4
Ntp381
Rp382
(lp383
I0
ag2
(g29
g4
Ntp384
Rp385
(lp386
I0
aI0
abag150
abag2
(g34
g4
Ntp387
Rp388
(lp389
g2
(g154
g4
Ntp390
Rp391
(lp392
F0.6938644486050474
aF0.13104970234771846
aF0.9301188437539285
abag2
(g158
g4
Ntp393
Rp394
(lp395
F0.7086462605021071
aF0.025854313710933125
aF-0.7049518295223578
aF0.013962449355210411
ababababsbag2
(g15
g4
Ntp396
Rp397
(dp398
g349
I14
sg350
g2
(g21
g4
Ntp399
Rp400
(lp401
g2
(g25
g4
Ntp402
Rp403
(lp404
I0
ag2
(g29
g4
Ntp405
Rp406
(lp407
I0
aI0
abag360
abag2
(g34
g4
Ntp408
Rp409
(lp410
(F0.41096311895472587
F0.34558021111812587
F0.8801951021419229
tp411
a(F0.12990211960293452
F-0.03652187835608198
F0.0009414411125639397
F0.9908535236918926
tp412
ababsg366
I00
sg367
g2
(g130
g4
Ntp413
Rp414
(lp415
g2
(g25
g4
Ntp416
Rp417
(lp418
I0
ag2
(g29
g4
Ntp419
Rp420
(lp421
I1496018334
aI225574486
abaS'base_link'
p422
abaI14
aI0
ag2
(g21
g4
Ntp423
Rp424
(lp425
g2
(g25
g4
Ntp426
Rp427
(lp428
I0
ag2
(g29
g4
Ntp429
Rp430
(lp431
I0
aI0
abag150
abag2
(g34
g4
Ntp432
Rp433
(lp434
g2
(g154
g4
Ntp435
Rp436
(lp437
F0.6910735182619139
aF0.1317823438576115
aF0.9324630071235989
abag2
(g158
g4
Ntp438
Rp439
(lp440
F0.7182383673677573
aF0.008603950858696518
aF-0.6956621893004578
aF0.010664804180790513
ababababsbag2
(g15
g4
Ntp441
Rp442
(dp443
g349
I14
sg350
g2
(g21
g4
Ntp444
Rp445
(lp446
g2
(g25
g4
Ntp447
Rp448
(lp449
I0
ag2
(g29
g4
Ntp450
Rp451
(lp452
I0
aI0
abag360
abag2
(g34
g4
Ntp453
Rp454
(lp455
(F0.5581655325022644
F0.6099115293840687
F0.988986942988819
tp456
a(F0.06349944363081106
F-0.010969975162001138
F-0.024335243481380168
F0.9976248173678443
tp457
ababsg366
I00
sg367
g2
(g130
g4
Ntp458
Rp459
(lp460
g2
(g25
g4
Ntp461
Rp462
(lp463
I0
ag2
(g29
g4
Ntp464
Rp465
(lp466
I1496018387
aI914159529
abaS'base_link'
p467
abaI14
aI0
ag2
(g21
g4
Ntp468
Rp469
(lp470
g2
(g25
g4
Ntp471
Rp472
(lp473
I0
ag2
(g29
g4
Ntp474
Rp475
(lp476
I0
aI0
abag150
abag2
(g34
g4
Ntp477
Rp478
(lp479
g2
(g154
g4
Ntp480
Rp481
(lp482
F0.6908001076422152
aF0.12773313292739585
aF0.9335931099126675
abag2
(g158
g4
Ntp483
Rp484
(lp485
F0.7222656508323753
aF0.012182726375722897
aF-0.6914731247711094
aF0.006987741052559323
ababababsbag2
(g15
g4
Ntp486
Rp487
(dp488
g349
I14
sg350
g2
(g21
g4
Ntp489
Rp490
(lp491
g2
(g25
g4
Ntp492
Rp493
(lp494
I0
ag2
(g29
g4
Ntp495
Rp496
(lp497
I0
aI0
abag360
abag2
(g34
g4
Ntp498
Rp499
(lp500
(F0.622848772343907
F0.37241723518218484
F0.939557848404103
tp501
a(F0.006166630928729449
F0.05403562318639506
F-0.5430707427782157
F0.8379237987001944
tp502
ababsg366
I00
sg367
g2
(g130
g4
Ntp503
Rp504
(lp505
g2
(g25
g4
Ntp506
Rp507
(lp508
I0
ag2
(g29
g4
Ntp509
Rp510
(lp511
I1496018402
aI796198360
abaS'base_link'
p512
abaI14
aI0
ag2
(g21
g4
Ntp513
Rp514
(lp515
g2
(g25
g4
Ntp516
Rp517
(lp518
I0
ag2
(g29
g4
Ntp519
Rp520
(lp521
I0
aI0
abag150
abag2
(g34
g4
Ntp522
Rp523
(lp524
g2
(g154
g4
Ntp525
Rp526
(lp527
F0.6892356545497107
aF0.12995636632656354
aF0.9345866269112991
abag2
(g158
g4
Ntp528
Rp529
(lp530
F0.7153510025030829
aF0.004441043037733338
aF-0.6986388741790698
aF0.012527722872620434
ababababsbag2
(g15
g4
Ntp531
Rp532
(dp533
g349
I14
sg350
g2
(g21
g4
Ntp534
Rp535
(lp536
g2
(g25
g4
Ntp537
Rp538
(lp539
I0
ag2
(g29
g4
Ntp540
Rp541
(lp542
I0
aI0
abag360
abag2
(g34
g4
Ntp543
Rp544
(lp545
(F0.6564599358157376
F0.2961471410738078
F0.9005375113068463
tp546
a(F-0.005506464289380877
F0.09228145431392175
F-0.5710356229303049
F0.8157034567692698
tp547
ababsg366
I00
sg367
g2
(g130
g4
Ntp548
Rp549
(lp550
g2
(g25
g4
Ntp551
Rp552
(lp553
I0
ag2
(g29
g4
Ntp554
Rp555
(lp556
I1496018415
aI809504978
abaS'base_link'
p557
abaI14
aI0
ag2
(g21
g4
Ntp558
Rp559
(lp560
g2
(g25
g4
Ntp561
Rp562
(lp563
I0
ag2
(g29
g4
Ntp564
Rp565
(lp566
I0
aI0
abag150
abag2
(g34
g4
Ntp567
Rp568
(lp569
g2
(g154
g4
Ntp570
Rp571
(lp572
F0.6894448493699108
aF0.13049897376247363
aF0.9345011297781604
abag2
(g158
g4
Ntp573
Rp574
(lp575
F0.7185830608181881
aF-0.015019557925327725
aF-0.6940220256261735
aF0.041787863437064504
ababababsbag2
(g10
g4
Ntp576
Rp577
(dp578
g345
I00
sbag2
(g15
g4
Ntp579
Rp580
(dp581
g349
Nsg350
g2
(g21
g4
Ntp582
Rp583
(lp584
g2
(g25
g4
Ntp585
Rp586
(lp587
I0
ag2
(g29
g4
Ntp588
Rp589
(lp590
I0
aI0
abag360
abag2
(g34
g4
Ntp591
Rp592
(lp593
(F0.2652931357017479
F0.35862129136405346
F0.8846265503652603
tp594
a(F0.06507582492894212
F-0.053543049142985556
F-0.13116393261889236
F0.987772393660724
tp595
ababsg366
I01
sg367
Nsbag2
(g15
g4
Ntp596
Rp597
(dp598
g349
Nsg350
g2
(g21
g4
Ntp599
Rp600
(lp601
g2
(g25
g4
Ntp602
Rp603
(lp604
I0
ag2
(g29
g4
Ntp605
Rp606
(lp607
I0
aI0
abag360
abag2
(g34
g4
Ntp608
Rp609
(lp610
(F0.17273487058375192
F0.1270503973371319
F0.8711323128613239
tp611
a(F0.06888424946052493
F0.7335547600088091
F-0.08963101414487624
F0.6701631559165571
tp612
ababsg366
I01
sg367
Nsbag2
(g10
g4
Ntp613
Rp614
(dp615
g345
I01
sbasbsS'cheezit'
p616
g2
(g3
g4
Ntp617
Rp618
(dp619
g8
(lp620
g2
(g10
g4
Ntp621
Rp622
(dp623
S'open'
p624
I01
sbag2
(g15
g4
Ntp625
Rp626
(dp627
S'tagId'
p628
I14
sS'pose'
p629
g2
(g21
g4
Ntp630
Rp631
(lp632
g2
(g25
g4
Ntp633
Rp634
(lp635
I0
ag2
(g29
g4
Ntp636
Rp637
(lp638
I0
aI0
abaS'base_link'
p639
abag2
(g34
g4
Ntp640
Rp641
(lp642
(F0.20805360421867297
F0.13509471823599073
F0.8297694122760002
tp643
a(F0.0890870386391241
F-0.02450608887719277
F-0.044706885447748874
F0.9947181739306948
tp644
ababsS'absolute'
p645
I00
sS'former_tag_pose'
p646
g2
(g130
g4
Ntp647
Rp648
(lp649
g2
(g25
g4
Ntp650
Rp651
(lp652
I0
ag2
(g29
g4
Ntp653
Rp654
(lp655
I1496018097
aI481996529
abaS'base_link'
p656
abaI14
aI0
ag2
(g21
g4
Ntp657
Rp658
(lp659
g2
(g25
g4
Ntp660
Rp661
(lp662
I0
ag2
(g29
g4
Ntp663
Rp664
(lp665
I0
aI0
abag150
abag2
(g34
g4
Ntp666
Rp667
(lp668
g2
(g154
g4
Ntp669
Rp670
(lp671
F0.7160521968428603
aF0.13658556916831543
aF0.9292591442486509
abag2
(g158
g4
Ntp672
Rp673
(lp674
F0.7103615465832239
aF-0.04002401635717114
aF-0.7023586960558729
aF0.02183605562423831
ababababsbasbs.