(dp0
S'box'
p1
ccopy_reg
_reconstructor
p2
(c__main__
DemonstrationProgram
p3
c__builtin__
object
p4
Ntp5
Rp6
(dp7
S'actions'
p8
(lp9
g2
(c__main__
GripperAction
p10
g4
Ntp11
Rp12
(dp13
S'open'
p14
I01
sbag2
(c__main__
MoveAction
p15
g4
Ntp16
Rp17
(dp18
S'tagId'
p19
NsS'pose'
p20
g2
(cgeometry_msgs.msg._PoseStamped
PoseStamped
p21
g4
Ntp22
Rp23
(lp24
g2
(cstd_msgs.msg._Header
Header
p25
g4
Ntp26
Rp27
(lp28
I0
ag2
(cgenpy.rostime
Time
p29
g4
Ntp30
Rp31
(lp32
I0
aI0
abaS'base_link'
p33
abag2
(cgeometry_msgs.msg._Pose
Pose
p34
g4
Ntp35
Rp36
(lp37
(F0.45771761589962373
F0.385805962629619
F0.7581525860976694
tp38
a(F-0.44385899083354724
F-0.42877772602147085
F-0.34403357892193037
F0.707657936080879
tp39
ababsS'absolute'
p40
I01
sS'former_tag_pose'
p41
Nsbag2
(g15
g4
Ntp42
Rp43
(dp44
g19
Nsg20
g2
(g21
g4
Ntp45
Rp46
(lp47
g2
(g25
g4
Ntp48
Rp49
(lp50
I0
ag2
(g29
g4
Ntp51
Rp52
(lp53
I0
aI0
abag33
abag2
(g34
g4
Ntp54
Rp55
(lp56
(F0.5628518740159586
F0.24214051869652284
F1.2511031498210161
tp57
a(F0.9357006426135034
F-0.3401990824321544
F0.0928889400754119
F-0.010026790945439394
tp58
ababsg40
I01
sg41
Nsbag2
(g15
g4
Ntp59
Rp60
(dp61
g19
Nsg20
g2
(g21
g4
Ntp62
Rp63
(lp64
g2
(g25
g4
Ntp65
Rp66
(lp67
I0
ag2
(g29
g4
Ntp68
Rp69
(lp70
I0
aI0
abag33
abag2
(g34
g4
Ntp71
Rp72
(lp73
(F0.902279623915341
F-0.010517422817273591
F0.9766743088897547
tp74
a(F0.9154566461894957
F-0.3210270475957377
F-0.2117051530211477
F-0.11858200472136074
tp75
ababsg40
I01
sg41
Nsbag2
(g10
g4
Ntp76
Rp77
(dp78
g14
I00
sbag2
(g15
g4
Ntp79
Rp80
(dp81
g19
Nsg20
g2
(g21
g4
Ntp82
Rp83
(lp84
g2
(g25
g4
Ntp85
Rp86
(lp87
I0
ag2
(g29
g4
Ntp88
Rp89
(lp90
I0
aI0
abag33
abag2
(g34
g4
Ntp91
Rp92
(lp93
(F0.6154079168540367
F0.21327557994322832
F1.230769778458102
tp94
a(F0.9504003684201986
F-0.27036256202699044
F0.15188963232631042
F0.023932495748054762
tp95
ababsg40
I01
sg41
Nsbag2
(c__main__
TuckAction
p96
g4
Ntp97
Rp98
asbsS'dropoff'
p99
g2
(g3
g4
Ntp100
Rp101
(dp102
g8
(lp103
g2
(g15
g4
Ntp104
Rp105
(dp106
S'tagId'
p107
NsS'pose'
p108
g2
(g21
g4
Ntp109
Rp110
(lp111
g2
(g25
g4
Ntp112
Rp113
(lp114
I0
ag2
(g29
g4
Ntp115
Rp116
(lp117
I0
aI0
abaS'base_link'
p118
abag2
(g34
g4
Ntp119
Rp120
(lp121
(F0.34768668304005124
F-0.45117930573713105
F0.8488203462783759
tp122
a(F0.9771528905948712
F0.1600692964204366
F0.016347778746852608
F-0.13886251789305173
tp123
ababsS'absolute'
p124
I01
sS'former_tag_pose'
p125
NsbasbsS'newhair'
p126
g2
(g3
g4
Ntp127
Rp128
(dp129
g8
(lp130
g2
(g15
g4
Ntp131
Rp132
(dp133
S'absolute'
p134
I00
sS'tagId'
p135
I0
sS'pose'
p136
g2
(g21
g4
Ntp137
Rp138
(lp139
g2
(g25
g4
Ntp140
Rp141
(lp142
I0
ag2
(g29
g4
Ntp143
Rp144
(lp145
I0
aI0
abaS'base_link'
p146
abag2
(g34
g4
Ntp147
Rp148
(lp149
(F0.23569450342770443
F0.15363733037941962
F0.8703699525976039
tp150
a(F0.9912846181898468
F0.02756476335394764
F0.020983977688914586
F-0.12710099229274932
tp151
ababsS'tagID'
p152
I0
sS'former_tag_pose'
p153
g2
(car_track_alvar_msgs.msg._AlvarMarker
AlvarMarker
p154
g4
Ntp155
Rp156
(lp157
g2
(g25
g4
Ntp158
Rp159
(lp160
I0
ag2
(g29
g4
Ntp161
Rp162
(lp163
I1496021534
aI866495363
abaS'base_link'
p164
abaI0
aI0
ag2
(g21
g4
Ntp165
Rp166
(lp167
g2
(g25
g4
Ntp168
Rp169
(lp170
I0
ag2
(g29
g4
Ntp171
Rp172
(lp173
I0
aI0
abaS''
p174
abag2
(g34
g4
Ntp175
Rp176
(lp177
g2
(cgeometry_msgs.msg._Point
Point
p178
g4
Ntp179
Rp180
(lp181
F0.6869624679127657
aF-0.1320761343448348
aF0.8752043043148318
abag2
(cgeometry_msgs.msg._Quaternion
Quaternion
p182
g4
Ntp183
Rp184
(lp185
F0.7177649819042828
aF-0.012577612886868423
aF-0.6956608121762315
aF0.026669623325395474
ababababsbag2
(g10
g4
Ntp186
Rp187
(dp188
S'open'
p189
I01
sbag2
(g15
g4
Ntp190
Rp191
(dp192
g134
I00
sg135
I0
sg136
g2
(g21
g4
Ntp193
Rp194
(lp195
g2
(g25
g4
Ntp196
Rp197
(lp198
I0
ag2
(g29
g4
Ntp199
Rp200
(lp201
I0
aI0
abag146
abag2
(g34
g4
Ntp202
Rp203
(lp204
(F0.44879896685796666
F-0.11814997339842409
F0.8351911017577107
tp205
a(F0.9994309388891363
F-0.01586265602023073
F-0.005401438677703195
F0.0292745451779238
tp206
ababsg152
I0
sg153
g2
(g154
g4
Ntp207
Rp208
(lp209
g2
(g25
g4
Ntp210
Rp211
(lp212
I0
ag2
(g29
g4
Ntp213
Rp214
(lp215
I1496021555
aI754541389
abaS'base_link'
p216
abaI0
aI0
ag2
(g21
g4
Ntp217
Rp218
(lp219
g2
(g25
g4
Ntp220
Rp221
(lp222
I0
ag2
(g29
g4
Ntp223
Rp224
(lp225
I0
aI0
abag174
abag2
(g34
g4
Ntp226
Rp227
(lp228
g2
(g178
g4
Ntp229
Rp230
(lp231
F0.6858340509988281
aF-0.13108174508288367
aF0.8768257217850567
abag2
(g182
g4
Ntp232
Rp233
(lp234
F0.7212725438463123
aF0.005865644321896303
aF-0.6925501862335806
aF0.010283543066043023
ababababsbag2
(g15
g4
Ntp235
Rp236
(dp237
g134
I00
sg135
I0
sg136
g2
(g21
g4
Ntp238
Rp239
(lp240
g2
(g25
g4
Ntp241
Rp242
(lp243
I0
ag2
(g29
g4
Ntp244
Rp245
(lp246
I0
aI0
abag146
abag2
(g34
g4
Ntp247
Rp248
(lp249
(F0.5433744456600241
F-0.11533418656998223
F0.8224240051696442
tp250
a(F0.9980993665319773
F-0.04421267696259451
F0.00812675887293837
F0.04215269284978315
tp251
ababsg152
I0
sg153
g2
(g154
g4
Ntp252
Rp253
(lp254
g2
(g25
g4
Ntp255
Rp256
(lp257
I0
ag2
(g29
g4
Ntp258
Rp259
(lp260
I1496021575
aI508228533
abaS'base_link'
p261
abaI0
aI0
ag2
(g21
g4
Ntp262
Rp263
(lp264
g2
(g25
g4
Ntp265
Rp266
(lp267
I0
ag2
(g29
g4
Ntp268
Rp269
(lp270
I0
aI0
abag174
abag2
(g34
g4
Ntp271
Rp272
(lp273
g2
(g178
g4
Ntp274
Rp275
(lp276
F0.6912562492061805
aF-0.1269794929639708
aF0.8760961948957191
abag2
(g182
g4
Ntp277
Rp278
(lp279
F0.7101411351670341
aF-0.005639588031193624
aF-0.7032976765846698
aF-0.03225122169965177
ababababsbag2
(g10
g4
Ntp280
Rp281
(dp282
g189
I00
sbag2
(g15
g4
Ntp283
Rp284
(dp285
g134
I01
sg135
Nsg136
g2
(g21
g4
Ntp286
Rp287
(lp288
g2
(g25
g4
Ntp289
Rp290
(lp291
I0
ag2
(g29
g4
Ntp292
Rp293
(lp294
I0
aI0
abag146
abag2
(g34
g4
Ntp295
Rp296
(lp297
(F0.2531000243253965
F-0.12323207380826177
F0.8531942063277124
tp298
a(F0.9975049160199086
F-0.030746959624863898
F-0.022586376901891726
F-0.059400526667594544
tp299
ababsg152
I0
sg153
Nsbag2
(g15
g4
Ntp300
Rp301
(dp302
g134
I01
sg135
Nsg136
g2
(g21
g4
Ntp303
Rp304
(lp305
g2
(g25
g4
Ntp306
Rp307
(lp308
I0
ag2
(g29
g4
Ntp309
Rp310
(lp311
I0
aI0
abag146
abag2
(g34
g4
Ntp312
Rp313
(lp314
(F0.12858996498950093
F-0.07892368900683626
F0.7665918243783838
tp315
a(F0.6486789854550336
F-0.21046257978004504
F-0.6442249579772807
F-0.34625897802154887
tp316
ababsg152
I0
sg153
Nsbag2
(g10
g4
Ntp317
Rp318
(dp319
g189
I01
sbasbsS'grippertest'
p320
g2
(g3
g4
Ntp321
Rp322
(dp323
g8
(lp324
g2
(g10
g4
Ntp325
Rp326
(dp327
S'open'
p328
I01
sbag2
(g10
g4
Ntp329
Rp330
(dp331
g328
I00
sbag2
(g10
g4
Ntp332
Rp333
(dp334
g328
I01
sbasbsS'cheezitNEWESTNEW'
p335
g2
(g3
g4
Ntp336
Rp337
(dp338
g8
(lp339
g2
(g10
g4
Ntp340
Rp341
(dp342
S'open'
p343
I01
sbag2
(g15
g4
Ntp344
Rp345
(dp346
S'tagId'
p347
I0
sS'pose'
p348
g2
(g21
g4
Ntp349
Rp350
(lp351
g2
(g25
g4
Ntp352
Rp353
(lp354
I0
ag2
(g29
g4
Ntp355
Rp356
(lp357
I0
aI0
abaS'base_link'
p358
abag2
(g34
g4
Ntp359
Rp360
(lp361
(F0.3110635526741648
F0.5755884746768054
F0.9630821580041842
tp362
a(F0.9761464749050807
F-0.21156847973843462
F-0.037044888720790106
F0.031694070915812285
tp363
ababsS'absolute'
p364
I00
sS'former_tag_pose'
p365
g2
(g154
g4
Ntp366
Rp367
(lp368
g2
(g25
g4
Ntp369
Rp370
(lp371
I0
ag2
(g29
g4
Ntp372
Rp373
(lp374
I1496026234
aI907747499
abaS'base_link'
p375
abaI14
aI0
ag2
(g21
g4
Ntp376
Rp377
(lp378
g2
(g25
g4
Ntp379
Rp380
(lp381
I0
ag2
(g29
g4
Ntp382
Rp383
(lp384
I0
aI0
abag174
abag2
(g34
g4
Ntp385
Rp386
(lp387
g2
(g178
g4
Ntp388
Rp389
(lp390
F0.7816123727784671
aF0.19505537453152802
aF0.9627920779364787
abag2
(g182
g4
Ntp391
Rp392
(lp393
F-0.7008770761948333
aF0.04451706941216189
aF0.709495951035902
aF0.05835280678078334
ababababsbag2
(g15
g4
Ntp394
Rp395
(dp396
g347
I0
sg348
g2
(g21
g4
Ntp397
Rp398
(lp399
g2
(g25
g4
Ntp400
Rp401
(lp402
I0
ag2
(g29
g4
Ntp403
Rp404
(lp405
I0
aI0
abag358
abag2
(g34
g4
Ntp406
Rp407
(lp408
(F0.6596114129812154
F0.4420185049272286
F0.8920802885362328
tp409
a(F0.8843645738171165
F-0.46375790655578436
F-0.053172575684782855
F0.0007628101417785311
tp410
ababsg364
I00
sg365
g2
(g154
g4
Ntp411
Rp412
(lp413
g2
(g25
g4
Ntp414
Rp415
(lp416
I0
ag2
(g29
g4
Ntp417
Rp418
(lp419
I1496026252
aI926408283
abaS'base_link'
p420
abaI14
aI0
ag2
(g21
g4
Ntp421
Rp422
(lp423
g2
(g25
g4
Ntp424
Rp425
(lp426
I0
ag2
(g29
g4
Ntp427
Rp428
(lp429
I0
aI0
abag174
abag2
(g34
g4
Ntp430
Rp431
(lp432
g2
(g178
g4
Ntp433
Rp434
(lp435
F0.7784638208573973
aF0.19734913361409864
aF0.9665387150075617
abag2
(g182
g4
Ntp436
Rp437
(lp438
F-0.6973136820809972
aF0.01987038218980665
aF0.7145429206292919
aF0.05279404580854356
ababababsbag2
(g15
g4
Ntp439
Rp440
(dp441
g347
I0
sg348
g2
(g21
g4
Ntp442
Rp443
(lp444
g2
(g25
g4
Ntp445
Rp446
(lp447
I0
ag2
(g29
g4
Ntp448
Rp449
(lp450
I0
aI0
abag358
abag2
(g34
g4
Ntp451
Rp452
(lp453
(F0.7287835617930686
F0.3316615605238818
F0.8755335163397411
tp454
a(F0.861480007019121
F-0.506129520366092
F-0.009445811437245103
F0.03994850143142889
tp455
ababsg364
I00
sg365
g2
(g154
g4
Ntp456
Rp457
(lp458
g2
(g25
g4
Ntp459
Rp460
(lp461
I0
ag2
(g29
g4
Ntp462
Rp463
(lp464
I1496026267
aI307957642
abaS'base_link'
p465
abaI14
aI0
ag2
(g21
g4
Ntp466
Rp467
(lp468
g2
(g25
g4
Ntp469
Rp470
(lp471
I0
ag2
(g29
g4
Ntp472
Rp473
(lp474
I0
aI0
abag174
abag2
(g34
g4
Ntp475
Rp476
(lp477
g2
(g178
g4
Ntp478
Rp479
(lp480
F0.7849813519243871
aF0.18648493188031876
aF0.9672186996985621
abag2
(g182
g4
Ntp481
Rp482
(lp483
F-0.6798318541295998
aF0.07196338926484357
aF0.7287879121972649
aF0.03896279958343532
ababababsbag2
(g10
g4
Ntp484
Rp485
(dp486
g343
I00
sbag2
(g15
g4
Ntp487
Rp488
(dp489
g347
I0
sg348
g2
(g21
g4
Ntp490
Rp491
(lp492
g2
(g25
g4
Ntp493
Rp494
(lp495
I0
ag2
(g29
g4
Ntp496
Rp497
(lp498
I0
aI0
abag358
abag2
(g34
g4
Ntp499
Rp500
(lp501
(F0.43808033386709183
F0.6384039161214472
F1.0868773607865605
tp502
a(F0.9317068661732735
F-0.3399102335934464
F0.06933725381030069
F-0.10759039854035563
tp503
ababsg364
I01
sg365
NsbasbsS'dropoffnew'
p504
g2
(g3
g4
Ntp505
Rp506
(dp507
g8
(lp508
g2
(g15
g4
Ntp509
Rp510
(dp511
g107
Nsg108
g2
(g21
g4
Ntp512
Rp513
(lp514
g2
(g25
g4
Ntp515
Rp516
(lp517
I0
ag2
(g29
g4
Ntp518
Rp519
(lp520
I0
aI0
abag118
abag2
(g34
g4
Ntp521
Rp522
(lp523
(F0.45195617436015795
F0.3403965751505913
F0.8978031402858979
tp524
a(F0.9307113114510411
F-0.34907725739724754
F0.10630773157963645
F-0.024903600372054233
tp525
ababsg124
I01
sg125
Nsbag2
(g15
g4
Ntp526
Rp527
(dp528
g107
Nsg108
g2
(g21
g4
Ntp529
Rp530
(lp531
g2
(g25
g4
Ntp532
Rp533
(lp534
I0
ag2
(g29
g4
Ntp535
Rp536
(lp537
I0
aI0
abag118
abag2
(g34
g4
Ntp538
Rp539
(lp540
(F0.3215931411373717
F0.3447036490352047
F0.8491542907297666
tp541
a(F0.7493626301059167
F-0.5448952670157539
F-0.3061080768398982
F-0.21872960905636973
tp542
ababsg124
I01
sg125
Nsbag2
(g15
g4
Ntp543
Rp544
(dp545
g107
Nsg108
g2
(g21
g4
Ntp546
Rp547
(lp548
g2
(g25
g4
Ntp549
Rp550
(lp551
I0
ag2
(g29
g4
Ntp552
Rp553
(lp554
I0
aI0
abag118
abag2
(g34
g4
Ntp555
Rp556
(lp557
(F0.33612801647909796
F0.05739192530135967
F0.7747168879129386
tp558
a(F-0.1997363672281913
F0.9382893836218773
F0.2621675698893684
F0.10481689504686682
tp559
ababsg124
I01
sg125
Nsbag2
(g10
g4
Ntp560
Rp561
(dp562
S'open'
p563
I01
sbasbsS'cheezit'
p564
g2
(g3
g4
Ntp565
Rp566
(dp567
g8
(lp568
g2
(g10
g4
Ntp569
Rp570
(dp571
S'open'
p572
I01
sbag2
(g15
g4
Ntp573
Rp574
(dp575
S'tagId'
p576
I14
sS'pose'
p577
g2
(g21
g4
Ntp578
Rp579
(lp580
g2
(g25
g4
Ntp581
Rp582
(lp583
I0
ag2
(g29
g4
Ntp584
Rp585
(lp586
I0
aI0
abaS'base_link'
p587
abag2
(g34
g4
Ntp588
Rp589
(lp590
(F0.20805360421867297
F0.13509471823599073
F0.8297694122760002
tp591
a(F0.0890870386391241
F-0.02450608887719277
F-0.044706885447748874
F0.9947181739306948
tp592
ababsS'absolute'
p593
I00
sS'former_tag_pose'
p594
g2
(g154
g4
Ntp595
Rp596
(lp597
g2
(g25
g4
Ntp598
Rp599
(lp600
I0
ag2
(g29
g4
Ntp601
Rp602
(lp603
I1496018097
aI481996529
abaS'base_link'
p604
abaI14
aI0
ag2
(g21
g4
Ntp605
Rp606
(lp607
g2
(g25
g4
Ntp608
Rp609
(lp610
I0
ag2
(g29
g4
Ntp611
Rp612
(lp613
I0
aI0
abag174
abag2
(g34
g4
Ntp614
Rp615
(lp616
g2
(g178
g4
Ntp617
Rp618
(lp619
F0.7160521968428603
aF0.13658556916831543
aF0.9292591442486509
abag2
(g182
g4
Ntp620
Rp621
(lp622
F0.7103615465832239
aF-0.04002401635717114
aF-0.7023586960558729
aF0.02183605562423831
ababababsbasbsS'frontNEWEST'
p623
g2
(g3
g4
Ntp624
Rp625
(dp626
g8
(lp627
g2
(g10
g4
Ntp628
Rp629
(dp630
S'open'
p631
I01
sbag2
(g15
g4
Ntp632
Rp633
(dp634
S'tagId'
p635
I0
sS'pose'
p636
g2
(g21
g4
Ntp637
Rp638
(lp639
g2
(g25
g4
Ntp640
Rp641
(lp642
I0
ag2
(g29
g4
Ntp643
Rp644
(lp645
I0
aI0
abaS'base_link'
p646
abag2
(g34
g4
Ntp647
Rp648
(lp649
(F0.4845872155130572
F-0.16126438784080968
F0.8292594512673691
tp650
a(F0.9995843982419731
F-0.015855672345026082
F0.01065400764528535
F-0.021589825539219162
tp651
ababsS'absolute'
p652
I00
sS'former_tag_pose'
p653
g2
(g154
g4
Ntp654
Rp655
(lp656
g2
(g25
g4
Ntp657
Rp658
(lp659
I0
ag2
(g29
g4
Ntp660
Rp661
(lp662
I1496025121
aI661145918
abaS'base_link'
p663
abaI0
aI0
ag2
(g21
g4
Ntp664
Rp665
(lp666
g2
(g25
g4
Ntp667
Rp668
(lp669
I0
ag2
(g29
g4
Ntp670
Rp671
(lp672
I0
aI0
abag174
abag2
(g34
g4
Ntp673
Rp674
(lp675
g2
(g178
g4
Ntp676
Rp677
(lp678
F0.8587980478976984
aF-0.17108236092953533
aF0.8809764622587904
abag2
(g182
g4
Ntp679
Rp680
(lp681
F-0.6874787806279514
aF-0.019003598824122295
aF0.7257169755321793
aF0.01861883031941824
ababababsbag2
(g15
g4
Ntp682
Rp683
(dp684
g635
I0
sg636
g2
(g21
g4
Ntp685
Rp686
(lp687
g2
(g25
g4
Ntp688
Rp689
(lp690
I0
ag2
(g29
g4
Ntp691
Rp692
(lp693
I0
aI0
abag646
abag2
(g34
g4
Ntp694
Rp695
(lp696
(F0.7040232938680208
F-0.15077365281819632
F0.8278094503051558
tp697
a(F0.9984003117043002
F0.01457668191415187
F0.0019526952918497772
F-0.05459418388644569
tp698
ababsg652
I00
sg653
g2
(g154
g4
Ntp699
Rp700
(lp701
g2
(g25
g4
Ntp702
Rp703
(lp704
I0
ag2
(g29
g4
Ntp705
Rp706
(lp707
I1496025139
aI145868055
abaS'base_link'
p708
abaI0
aI0
ag2
(g21
g4
Ntp709
Rp710
(lp711
g2
(g25
g4
Ntp712
Rp713
(lp714
I0
ag2
(g29
g4
Ntp715
Rp716
(lp717
I0
aI0
abag174
abag2
(g34
g4
Ntp718
Rp719
(lp720
g2
(g178
g4
Ntp721
Rp722
(lp723
F0.8481484947820634
aF-0.14387065359373674
aF0.881234009836021
abag2
(g182
g4
Ntp724
Rp725
(lp726
F-0.6976892826958843
aF0.035727547214393376
aF0.714530103180159
aF0.037415756449618386
ababababsbag2
(g10
g4
Ntp727
Rp728
(dp729
g631
I00
sbag2
(g15
g4
Ntp730
Rp731
(dp732
g635
Nsg636
g2
(g21
g4
Ntp733
Rp734
(lp735
g2
(g25
g4
Ntp736
Rp737
(lp738
I0
ag2
(g29
g4
Ntp739
Rp740
(lp741
I0
aI0
abag646
abag2
(g34
g4
Ntp742
Rp743
(lp744
(F0.4596672114368561
F-0.13442302692112104
F0.8232912113613052
tp745
a(F0.9836937558658861
F-0.04983276890565506
F0.13260984278723187
F0.11080577335864598
tp746
ababsg652
I01
sg653
NsbasbsS'leftpick'
p747
g2
(g3
g4
Ntp748
Rp749
(dp750
g8
(lp751
g2
(g10
g4
Ntp752
Rp753
(dp754
S'open'
p755
I01
sbag2
(g15
g4
Ntp756
Rp757
(dp758
S'tagId'
p759
I14
sS'pose'
p760
g2
(g21
g4
Ntp761
Rp762
(lp763
g2
(g25
g4
Ntp764
Rp765
(lp766
I0
ag2
(g29
g4
Ntp767
Rp768
(lp769
I0
aI0
abaS'base_link'
p770
abag2
(g34
g4
Ntp771
Rp772
(lp773
(F0.20800545269964138
F0.1349921318770097
F0.830525560359129
tp774
a(F0.08892400566884794
F-0.02717771529019318
F-0.04478858719272028
F0.9946596782139567
tp775
ababsS'absolute'
p776
I00
sS'former_tag_pose'
p777
g2
(g154
g4
Ntp778
Rp779
(lp780
g2
(g25
g4
Ntp781
Rp782
(lp783
I0
ag2
(g29
g4
Ntp784
Rp785
(lp786
I1496018275
aI998979799
abaS'base_link'
p787
abaI14
aI0
ag2
(g21
g4
Ntp788
Rp789
(lp790
g2
(g25
g4
Ntp791
Rp792
(lp793
I0
ag2
(g29
g4
Ntp794
Rp795
(lp796
I0
aI0
abag174
abag2
(g34
g4
Ntp797
Rp798
(lp799
g2
(g178
g4
Ntp800
Rp801
(lp802
F0.6938644486050474
aF0.13104970234771846
aF0.9301188437539285
abag2
(g182
g4
Ntp803
Rp804
(lp805
F0.7086462605021071
aF0.025854313710933125
aF-0.7049518295223578
aF0.013962449355210411
ababababsbag2
(g15
g4
Ntp806
Rp807
(dp808
g759
I14
sg760
g2
(g21
g4
Ntp809
Rp810
(lp811
g2
(g25
g4
Ntp812
Rp813
(lp814
I0
ag2
(g29
g4
Ntp815
Rp816
(lp817
I0
aI0
abag770
abag2
(g34
g4
Ntp818
Rp819
(lp820
(F0.41096311895472587
F0.34558021111812587
F0.8801951021419229
tp821
a(F0.12990211960293452
F-0.03652187835608198
F0.0009414411125639397
F0.9908535236918926
tp822
ababsg776
I00
sg777
g2
(g154
g4
Ntp823
Rp824
(lp825
g2
(g25
g4
Ntp826
Rp827
(lp828
I0
ag2
(g29
g4
Ntp829
Rp830
(lp831
I1496018334
aI225574486
abaS'base_link'
p832
abaI14
aI0
ag2
(g21
g4
Ntp833
Rp834
(lp835
g2
(g25
g4
Ntp836
Rp837
(lp838
I0
ag2
(g29
g4
Ntp839
Rp840
(lp841
I0
aI0
abag174
abag2
(g34
g4
Ntp842
Rp843
(lp844
g2
(g178
g4
Ntp845
Rp846
(lp847
F0.6910735182619139
aF0.1317823438576115
aF0.9324630071235989
abag2
(g182
g4
Ntp848
Rp849
(lp850
F0.7182383673677573
aF0.008603950858696518
aF-0.6956621893004578
aF0.010664804180790513
ababababsbag2
(g15
g4
Ntp851
Rp852
(dp853
g759
I14
sg760
g2
(g21
g4
Ntp854
Rp855
(lp856
g2
(g25
g4
Ntp857
Rp858
(lp859
I0
ag2
(g29
g4
Ntp860
Rp861
(lp862
I0
aI0
abag770
abag2
(g34
g4
Ntp863
Rp864
(lp865
(F0.5581655325022644
F0.6099115293840687
F0.988986942988819
tp866
a(F0.06349944363081106
F-0.010969975162001138
F-0.024335243481380168
F0.9976248173678443
tp867
ababsg776
I00
sg777
g2
(g154
g4
Ntp868
Rp869
(lp870
g2
(g25
g4
Ntp871
Rp872
(lp873
I0
ag2
(g29
g4
Ntp874
Rp875
(lp876
I1496018387
aI914159529
abaS'base_link'
p877
abaI14
aI0
ag2
(g21
g4
Ntp878
Rp879
(lp880
g2
(g25
g4
Ntp881
Rp882
(lp883
I0
ag2
(g29
g4
Ntp884
Rp885
(lp886
I0
aI0
abag174
abag2
(g34
g4
Ntp887
Rp888
(lp889
g2
(g178
g4
Ntp890
Rp891
(lp892
F0.6908001076422152
aF0.12773313292739585
aF0.9335931099126675
abag2
(g182
g4
Ntp893
Rp894
(lp895
F0.7222656508323753
aF0.012182726375722897
aF-0.6914731247711094
aF0.006987741052559323
ababababsbag2
(g15
g4
Ntp896
Rp897
(dp898
g759
I14
sg760
g2
(g21
g4
Ntp899
Rp900
(lp901
g2
(g25
g4
Ntp902
Rp903
(lp904
I0
ag2
(g29
g4
Ntp905
Rp906
(lp907
I0
aI0
abag770
abag2
(g34
g4
Ntp908
Rp909
(lp910
(F0.622848772343907
F0.37241723518218484
F0.939557848404103
tp911
a(F0.006166630928729449
F0.05403562318639506
F-0.5430707427782157
F0.8379237987001944
tp912
ababsg776
I00
sg777
g2
(g154
g4
Ntp913
Rp914
(lp915
g2
(g25
g4
Ntp916
Rp917
(lp918
I0
ag2
(g29
g4
Ntp919
Rp920
(lp921
I1496018402
aI796198360
abaS'base_link'
p922
abaI14
aI0
ag2
(g21
g4
Ntp923
Rp924
(lp925
g2
(g25
g4
Ntp926
Rp927
(lp928
I0
ag2
(g29
g4
Ntp929
Rp930
(lp931
I0
aI0
abag174
abag2
(g34
g4
Ntp932
Rp933
(lp934
g2
(g178
g4
Ntp935
Rp936
(lp937
F0.6892356545497107
aF0.12995636632656354
aF0.9345866269112991
abag2
(g182
g4
Ntp938
Rp939
(lp940
F0.7153510025030829
aF0.004441043037733338
aF-0.6986388741790698
aF0.012527722872620434
ababababsbag2
(g15
g4
Ntp941
Rp942
(dp943
g759
I14
sg760
g2
(g21
g4
Ntp944
Rp945
(lp946
g2
(g25
g4
Ntp947
Rp948
(lp949
I0
ag2
(g29
g4
Ntp950
Rp951
(lp952
I0
aI0
abag770
abag2
(g34
g4
Ntp953
Rp954
(lp955
(F0.6564599358157376
F0.2961471410738078
F0.9005375113068463
tp956
a(F-0.005506464289380877
F0.09228145431392175
F-0.5710356229303049
F0.8157034567692698
tp957
ababsg776
I00
sg777
g2
(g154
g4
Ntp958
Rp959
(lp960
g2
(g25
g4
Ntp961
Rp962
(lp963
I0
ag2
(g29
g4
Ntp964
Rp965
(lp966
I1496018415
aI809504978
abaS'base_link'
p967
abaI14
aI0
ag2
(g21
g4
Ntp968
Rp969
(lp970
g2
(g25
g4
Ntp971
Rp972
(lp973
I0
ag2
(g29
g4
Ntp974
Rp975
(lp976
I0
aI0
abag174
abag2
(g34
g4
Ntp977
Rp978
(lp979
g2
(g178
g4
Ntp980
Rp981
(lp982
F0.6894448493699108
aF0.13049897376247363
aF0.9345011297781604
abag2
(g182
g4
Ntp983
Rp984
(lp985
F0.7185830608181881
aF-0.015019557925327725
aF-0.6940220256261735
aF0.041787863437064504
ababababsbag2
(g10
g4
Ntp986
Rp987
(dp988
g755
I00
sbag2
(g15
g4
Ntp989
Rp990
(dp991
g759
Nsg760
g2
(g21
g4
Ntp992
Rp993
(lp994
g2
(g25
g4
Ntp995
Rp996
(lp997
I0
ag2
(g29
g4
Ntp998
Rp999
(lp1000
I0
aI0
abag770
abag2
(g34
g4
Ntp1001
Rp1002
(lp1003
(F0.2652931357017479
F0.35862129136405346
F0.8846265503652603
tp1004
a(F0.06507582492894212
F-0.053543049142985556
F-0.13116393261889236
F0.987772393660724
tp1005
ababsg776
I01
sg777
Nsbag2
(g15
g4
Ntp1006
Rp1007
(dp1008
g759
Nsg760
g2
(g21
g4
Ntp1009
Rp1010
(lp1011
g2
(g25
g4
Ntp1012
Rp1013
(lp1014
I0
ag2
(g29
g4
Ntp1015
Rp1016
(lp1017
I0
aI0
abag770
abag2
(g34
g4
Ntp1018
Rp1019
(lp1020
(F0.17273487058375192
F0.1270503973371319
F0.8711323128613239
tp1021
a(F0.06888424946052493
F0.7335547600088091
F-0.08963101414487624
F0.6701631559165571
tp1022
ababsg776
I01
sg777
Nsbag2
(g10
g4
Ntp1023
Rp1024
(dp1025
g755
I01
sbasbsS'hairnewaction'
p1026
g2
(g3
g4
Ntp1027
Rp1028
(dp1029
g8
(lp1030
g2
(g10
g4
Ntp1031
Rp1032
(dp1033
S'open'
p1034
I01
sbag2
(g15
g4
Ntp1035
Rp1036
(dp1037
S'tagId'
p1038
I0
sS'pose'
p1039
g2
(g21
g4
Ntp1040
Rp1041
(lp1042
g2
(g25
g4
Ntp1043
Rp1044
(lp1045
I0
ag2
(g29
g4
Ntp1046
Rp1047
(lp1048
I0
aI0
abaS'base_link'
p1049
abag2
(g34
g4
Ntp1050
Rp1051
(lp1052
(F0.42226112790062414
F0.32483010249016453
F0.9216129930375246
tp1053
a(F0.9782565408441412
F-0.16498542748709022
F0.1237130605678308
F-0.0221139697362875
tp1054
ababsS'absolute'
p1055
I00
sS'former_tag_pose'
p1056
g2
(g154
g4
Ntp1057
Rp1058
(lp1059
g2
(g25
g4
Ntp1060
Rp1061
(lp1062
I0
ag2
(g29
g4
Ntp1063
Rp1064
(lp1065
I1496106855
aI222991936
abaS'base_link'
p1066
abaI0
aI0
ag2
(g21
g4
Ntp1067
Rp1068
(lp1069
g2
(g25
g4
Ntp1070
Rp1071
(lp1072
I0
ag2
(g29
g4
Ntp1073
Rp1074
(lp1075
I0
aI0
abag174
abag2
(g34
g4
Ntp1076
Rp1077
(lp1078
g2
(g178
g4
Ntp1079
Rp1080
(lp1081
F0.8229434985890429
aF0.08436134490356215
aF0.9184489442215364
abag2
(g182
g4
Ntp1082
Rp1083
(lp1084
F-0.6999431700075628
aF0.07024506268942951
aF0.7105028872502339
aF0.01818892895702705
ababababsbag2
(g15
g4
Ntp1085
Rp1086
(dp1087
g1038
I0
sg1039
g2
(g21
g4
Ntp1088
Rp1089
(lp1090
g2
(g25
g4
Ntp1091
Rp1092
(lp1093
I0
ag2
(g29
g4
Ntp1094
Rp1095
(lp1096
I0
aI0
abag1049
abag2
(g34
g4
Ntp1097
Rp1098
(lp1099
(F0.5983561793374277
F0.1096217009841526
F0.844273183484106
tp1100
a(F0.9961258832233532
F-0.05221771644582537
F0.06977138671717015
F0.01176811188088436
tp1101
ababsg1055
I00
sg1056
g2
(g154
g4
Ntp1102
Rp1103
(lp1104
g2
(g25
g4
Ntp1105
Rp1106
(lp1107
I0
ag2
(g29
g4
Ntp1108
Rp1109
(lp1110
I1496106879
aI948615782
abaS'base_link'
p1111
abaI0
aI0
ag2
(g21
g4
Ntp1112
Rp1113
(lp1114
g2
(g25
g4
Ntp1115
Rp1116
(lp1117
I0
ag2
(g29
g4
Ntp1118
Rp1119
(lp1120
I0
aI0
abag174
abag2
(g34
g4
Ntp1121
Rp1122
(lp1123
g2
(g178
g4
Ntp1124
Rp1125
(lp1126
F0.8220687685834188
aF0.08474654263096741
aF0.9209509911884664
abag2
(g182
g4
Ntp1127
Rp1128
(lp1129
F-0.7043131166697166
aF0.04425169821225177
aF0.7071634536563769
aF0.04364253321138936
ababababsbag2
(g15
g4
Ntp1130
Rp1131
(dp1132
g1038
I0
sg1039
g2
(g21
g4
Ntp1133
Rp1134
(lp1135
g2
(g25
g4
Ntp1136
Rp1137
(lp1138
I0
ag2
(g29
g4
Ntp1139
Rp1140
(lp1141
I0
aI0
abag1049
abag2
(g34
g4
Ntp1142
Rp1143
(lp1144
(F0.686939639651604
F0.11230843724279928
F0.8486791358166881
tp1145
a(F0.9964926495046498
F-0.052487120585079705
F0.05608586429643973
F0.033194539942765014
tp1146
ababsg1055
I00
sg1056
g2
(g154
g4
Ntp1147
Rp1148
(lp1149
g2
(g25
g4
Ntp1150
Rp1151
(lp1152
I0
ag2
(g29
g4
Ntp1153
Rp1154
(lp1155
I1496106895
aI931716434
abaS'base_link'
p1156
abaI0
aI0
ag2
(g21
g4
Ntp1157
Rp1158
(lp1159
g2
(g25
g4
Ntp1160
Rp1161
(lp1162
I0
ag2
(g29
g4
Ntp1163
Rp1164
(lp1165
I0
aI0
abag174
abag2
(g34
g4
Ntp1166
Rp1167
(lp1168
g2
(g178
g4
Ntp1169
Rp1170
(lp1171
F0.8269599778305148
aF0.09571570814760054
aF0.9201589388118085
abag2
(g182
g4
Ntp1172
Rp1173
(lp1174
F0.7135017699218065
aF-0.04079534429882727
aF-0.6977106936513159
aF-0.04950507212993064
ababababsbag2
(g10
g4
Ntp1175
Rp1176
(dp1177
g1034
I00
sbag2
(g15
g4
Ntp1178
Rp1179
(dp1180
g1038
Nsg1039
g2
(g21
g4
Ntp1181
Rp1182
(lp1183
g2
(g25
g4
Ntp1184
Rp1185
(lp1186
I0
ag2
(g29
g4
Ntp1187
Rp1188
(lp1189
I0
aI0
abag1049
abag2
(g34
g4
Ntp1190
Rp1191
(lp1192
(F0.507382964356796
F0.14815849761036942
F0.910169564919598
tp1193
a(F0.9914218734171855
F-0.0958374870104727
F0.08885319702529394
F-0.0017188286302566309
tp1194
ababsg1055
I01
sg1056
NsbasbsS'cheezitNEWEST'
p1195
g2
(g3
g4
Ntp1196
Rp1197
(dp1198
g8
(lp1199
g2
(g10
g4
Ntp1200
Rp1201
(dp1202
S'open'
p1203
I01
sbag2
(g15
g4
Ntp1204
Rp1205
(dp1206
S'absolute'
p1207
I00
sS'tagId'
p1208
I14
sS'pose'
p1209
g2
(g21
g4
Ntp1210
Rp1211
(lp1212
g2
(g25
g4
Ntp1213
Rp1214
(lp1215
I0
ag2
(g29
g4
Ntp1216
Rp1217
(lp1218
I0
aI0
abaS'base_link'
p1219
abag2
(g34
g4
Ntp1220
Rp1221
(lp1222
(F0.3947711218636614
F0.542702180085625
F0.9759399326881044
tp1223
a(F0.9710049396116482
F-0.21919947557769745
F0.024064734019749956
F0.09231406032019465
tp1224
ababsS'tagID'
p1225
I0
sS'former_tag_pose'
p1226
g2
(g154
g4
Ntp1227
Rp1228
(lp1229
g2
(g25
g4
Ntp1230
Rp1231
(lp1232
I0
ag2
(g29
g4
Ntp1233
Rp1234
(lp1235
I1496024567
aI490300171
abaS'base_link'
p1236
abaI14
aI0
ag2
(g21
g4
Ntp1237
Rp1238
(lp1239
g2
(g25
g4
Ntp1240
Rp1241
(lp1242
I0
ag2
(g29
g4
Ntp1243
Rp1244
(lp1245
I0
aI0
abag174
abag2
(g34
g4
Ntp1246
Rp1247
(lp1248
g2
(g178
g4
Ntp1249
Rp1250
(lp1251
F0.8989067406659913
aF0.139283937864472
aF0.9302063357111392
abag2
(g182
g4
Ntp1252
Rp1253
(lp1254
F0.7183961585474424
aF0.029450825932076995
aF-0.6932318224656047
aF-0.04969153405976557
ababababsbag2
(g15
g4
Ntp1255
Rp1256
(dp1257
g1208
I14
sg1209
g2
(g21
g4
Ntp1258
Rp1259
(lp1260
g2
(g25
g4
Ntp1261
Rp1262
(lp1263
I0
ag2
(g29
g4
Ntp1264
Rp1265
(lp1266
I0
aI0
abag1219
abag2
(g34
g4
Ntp1267
Rp1268
(lp1269
(F0.7265954693609695
F0.36732297013609283
F0.8927115270512681
tp1270
a(F0.9371056053410234
F-0.348009339943667
F0.004219002459937678
F-0.026547763910554963
tp1271
ababsg1207
I00
sg1226
g2
(g154
g4
Ntp1272
Rp1273
(lp1274
g2
(g25
g4
Ntp1275
Rp1276
(lp1277
I0
ag2
(g29
g4
Ntp1278
Rp1279
(lp1280
I1496024586
aI843765490
abaS'base_link'
p1281
abaI14
aI0
ag2
(g21
g4
Ntp1282
Rp1283
(lp1284
g2
(g25
g4
Ntp1285
Rp1286
(lp1287
I0
ag2
(g29
g4
Ntp1288
Rp1289
(lp1290
I0
aI0
abag174
abag2
(g34
g4
Ntp1291
Rp1292
(lp1293
g2
(g178
g4
Ntp1294
Rp1295
(lp1296
F0.8955637983706095
aF0.14020162619756876
aF0.9345835847120978
abag2
(g182
g4
Ntp1297
Rp1298
(lp1299
F0.7143515899810086
aF0.0067913423791512205
aF-0.6996948467347957
aF-0.00909972598845967
ababababsbag2
(g15
g4
Ntp1300
Rp1301
(dp1302
g1208
I14
sg1209
g2
(g21
g4
Ntp1303
Rp1304
(lp1305
g2
(g25
g4
Ntp1306
Rp1307
(lp1308
I0
ag2
(g29
g4
Ntp1309
Rp1310
(lp1311
I0
aI0
abag1219
abag2
(g34
g4
Ntp1312
Rp1313
(lp1314
(F0.7720275720880192
F0.26089451965083876
F0.8511908417713321
tp1315
a(F0.9204924261949119
F-0.38996762577224375
F-0.023804936638485028
F-0.007229741281810248
tp1316
ababsg1207
I00
sg1226
g2
(g154
g4
Ntp1317
Rp1318
(lp1319
g2
(g25
g4
Ntp1320
Rp1321
(lp1322
I0
ag2
(g29
g4
Ntp1323
Rp1324
(lp1325
I1496024599
aI723572962
abaS'base_link'
p1326
abaI14
aI0
ag2
(g21
g4
Ntp1327
Rp1328
(lp1329
g2
(g25
g4
Ntp1330
Rp1331
(lp1332
I0
ag2
(g29
g4
Ntp1333
Rp1334
(lp1335
I0
aI0
abag174
abag2
(g34
g4
Ntp1336
Rp1337
(lp1338
g2
(g178
g4
Ntp1339
Rp1340
(lp1341
F0.883881426281431
aF0.13371146360274674
aF0.9358455692549877
abag2
(g182
g4
Ntp1342
Rp1343
(lp1344
F0.7186685359225294
aF0.08109098305380061
aF-0.6905851074843711
aF0.005656612337437828
ababababsbag2
(g10
g4
Ntp1345
Rp1346
(dp1347
g1203
I00
sbag2
(g15
g4
Ntp1348
Rp1349
(dp1350
g1208
I14
sg1209
g2
(g21
g4
Ntp1351
Rp1352
(lp1353
g2
(g25
g4
Ntp1354
Rp1355
(lp1356
I0
ag2
(g29
g4
Ntp1357
Rp1358
(lp1359
I0
aI0
abag1219
abag2
(g34
g4
Ntp1360
Rp1361
(lp1362
(F0.5690752122825423
F0.4979625870246308
F0.9275359667629325
tp1363
a(F0.9033894113564374
F-0.4233783257724981
F0.023881834591746903
F-0.06378105276395625
tp1364
ababsg1207
I01
sg1226
NsbasbsS'front'
p1365
g2
(g3
g4
Ntp1366
Rp1367
(dp1368
g8
(lp1369
g2
(g10
g4
Ntp1370
Rp1371
(dp1372
S'open'
p1373
I01
sbag2
(g15
g4
Ntp1374
Rp1375
(dp1376
S'tagId'
p1377
I0
sS'pose'
p1378
g2
(g21
g4
Ntp1379
Rp1380
(lp1381
g2
(g25
g4
Ntp1382
Rp1383
(lp1384
I0
ag2
(g29
g4
Ntp1385
Rp1386
(lp1387
I0
aI0
abaS'base_link'
p1388
abag2
(g34
g4
Ntp1389
Rp1390
(lp1391
(F0.1849255193278141
F0.15072710434355516
F0.8722301008847899
tp1392
a(F-0.044061437993182004
F-0.0494921157990678
F-0.019618175793956798
F0.9976092658622524
tp1393
ababsS'absolute'
p1394
I00
sS'former_tag_pose'
p1395
g2
(g154
g4
Ntp1396
Rp1397
(lp1398
g2
(g25
g4
Ntp1399
Rp1400
(lp1401
I0
ag2
(g29
g4
Ntp1402
Rp1403
(lp1404
I1496017533
aI134590857
abaS'base_link'
p1405
abaI0
aI0
ag2
(g21
g4
Ntp1406
Rp1407
(lp1408
g2
(g25
g4
Ntp1409
Rp1410
(lp1411
I0
ag2
(g29
g4
Ntp1412
Rp1413
(lp1414
I0
aI0
abag174
abag2
(g34
g4
Ntp1415
Rp1416
(lp1417
g2
(g178
g4
Ntp1418
Rp1419
(lp1420
F0.6861920726754278
aF0.08410455930350072
aF0.9317233364045597
abag2
(g182
g4
Ntp1421
Rp1422
(lp1423
F0.7227898274152103
aF-0.0020000583800490784
aF-0.6897984353640779
aF-0.04182085270337108
ababababsbag2
(g15
g4
Ntp1424
Rp1425
(dp1426
g1377
I0
sg1378
g2
(g21
g4
Ntp1427
Rp1428
(lp1429
g2
(g25
g4
Ntp1430
Rp1431
(lp1432
I0
ag2
(g29
g4
Ntp1433
Rp1434
(lp1435
I0
aI0
abag1388
abag2
(g34
g4
Ntp1436
Rp1437
(lp1438
(F0.19303580323200237
F-0.05680492987476359
F0.8247162669373516
tp1439
a(F-0.27832179760130876
F-0.08240605636557698
F0.0122644652251363
F0.9568677033670804
tp1440
ababsg1394
I00
sg1395
g2
(g154
g4
Ntp1441
Rp1442
(lp1443
g2
(g25
g4
Ntp1444
Rp1445
(lp1446
I0
ag2
(g29
g4
Ntp1447
Rp1448
(lp1449
I1496017611
aI715464108
abaS'base_link'
p1450
abaI0
aI0
ag2
(g21
g4
Ntp1451
Rp1452
(lp1453
g2
(g25
g4
Ntp1454
Rp1455
(lp1456
I0
ag2
(g29
g4
Ntp1457
Rp1458
(lp1459
I0
aI0
abag174
abag2
(g34
g4
Ntp1460
Rp1461
(lp1462
g2
(g178
g4
Ntp1463
Rp1464
(lp1465
F0.6754569942686037
aF-0.1572197683959744
aF0.8738015457169239
abag2
(g182
g4
Ntp1466
Rp1467
(lp1468
F-0.6988786192551173
aF0.004074244711926421
aF0.7136697338527064
aF-0.04719732048215661
ababababsbag2
(g15
g4
Ntp1469
Rp1470
(dp1471
g1377
I0
sg1378
g2
(g21
g4
Ntp1472
Rp1473
(lp1474
g2
(g25
g4
Ntp1475
Rp1476
(lp1477
I0
ag2
(g29
g4
Ntp1478
Rp1479
(lp1480
I0
aI0
abag1388
abag2
(g34
g4
Ntp1481
Rp1482
(lp1483
(F0.39530850501618675
F-0.14910635859217042
F0.8388966680655776
tp1484
a(F-0.05090382157403684
F0.0276181753541753
F-0.016357917594273078
F0.9981875855124845
tp1485
ababsg1394
I00
sg1395
g2
(g154
g4
Ntp1486
Rp1487
(lp1488
g2
(g25
g4
Ntp1489
Rp1490
(lp1491
I0
ag2
(g29
g4
Ntp1492
Rp1493
(lp1494
I1496017654
aI559754364
abaS'base_link'
p1495
abaI0
aI0
ag2
(g21
g4
Ntp1496
Rp1497
(lp1498
g2
(g25
g4
Ntp1499
Rp1500
(lp1501
I0
ag2
(g29
g4
Ntp1502
Rp1503
(lp1504
I0
aI0
abag174
abag2
(g34
g4
Ntp1505
Rp1506
(lp1507
g2
(g178
g4
Ntp1508
Rp1509
(lp1510
F0.6750542457693633
aF-0.1573962507275581
aF0.8754992186972226
abag2
(g182
g4
Ntp1511
Rp1512
(lp1513
F0.46507844127880643
aF-0.5258018009041492
aF-0.4371355779070368
aF0.5622695049097991
ababababsbag2
(g15
g4
Ntp1514
Rp1515
(dp1516
g1377
I0
sg1378
g2
(g21
g4
Ntp1517
Rp1518
(lp1519
g2
(g25
g4
Ntp1520
Rp1521
(lp1522
I0
ag2
(g29
g4
Ntp1523
Rp1524
(lp1525
I0
aI0
abag1388
abag2
(g34
g4
Ntp1526
Rp1527
(lp1528
(F0.5404063183421436
F-0.14648085397873725
F0.8259404909007203
tp1529
a(F-0.039611799126482335
F0.033880416490549396
F-0.02582385002695631
F0.9983066420284779
tp1530
ababsg1394
I00
sg1395
g2
(g154
g4
Ntp1531
Rp1532
(lp1533
g2
(g25
g4
Ntp1534
Rp1535
(lp1536
I0
ag2
(g29
g4
Ntp1537
Rp1538
(lp1539
I1496017680
aI252809994
abaS'base_link'
p1540
abaI0
aI0
ag2
(g21
g4
Ntp1541
Rp1542
(lp1543
g2
(g25
g4
Ntp1544
Rp1545
(lp1546
I0
ag2
(g29
g4
Ntp1547
Rp1548
(lp1549
I0
aI0
abag174
abag2
(g34
g4
Ntp1550
Rp1551
(lp1552
g2
(g178
g4
Ntp1553
Rp1554
(lp1555
F0.6812854242026336
aF-0.1518002213728251
aF0.8745625452780321
abag2
(g182
g4
Ntp1556
Rp1557
(lp1558
F0.7170894990131991
aF-0.001667216264814658
aF-0.6968983599407472
aF-0.0106088032700448
ababababsbag2
(g10
g4
Ntp1559
Rp1560
(dp1561
g1373
I00
sbag2
(g15
g4
Ntp1562
Rp1563
(dp1564
g1377
Nsg1378
g2
(g21
g4
Ntp1565
Rp1566
(lp1567
g2
(g25
g4
Ntp1568
Rp1569
(lp1570
I0
ag2
(g29
g4
Ntp1571
Rp1572
(lp1573
I0
aI0
abag1388
abag2
(g34
g4
Ntp1574
Rp1575
(lp1576
(F0.33214584886850906
F-0.131031470159653
F0.9461494736599305
tp1577
a(F0.0006226183258941962
F-0.04335464927555006
F0.016497538816039325
F0.9989233293629834
tp1578
ababsg1394
I01
sg1395
Nsbag2
(g15
g4
Ntp1579
Rp1580
(dp1581
g1377
Nsg1378
g2
(g21
g4
Ntp1582
Rp1583
(lp1584
g2
(g25
g4
Ntp1585
Rp1586
(lp1587
I0
ag2
(g29
g4
Ntp1588
Rp1589
(lp1590
I0
aI0
abag1388
abag2
(g34
g4
Ntp1591
Rp1592
(lp1593
(F0.19112393733051442
F-0.08733220605366096
F0.8044226046886778
tp1594
a(F0.4311189103438366
F0.7495810687905624
F-0.2277105690873094
F0.4476746622053505
tp1595
ababsg1394
I01
sg1395
Nsbag2
(g10
g4
Ntp1596
Rp1597
(dp1598
g1373
I01
sbasbs.