(dp0
S'left1'
p1
ccopy_reg
_reconstructor
p2
(c__main__
DemonstrationProgram
p3
c__builtin__
object
p4
Ntp5
Rp6
(dp7
S'actions'
p8
(lp9
g2
(c__main__
GripperAction
p10
g4
Ntp11
Rp12
(dp13
S'effort'
p14
I75
sS'open'
p15
I01
sbag2
(c__main__
MoveAction
p16
g4
Ntp17
Rp18
(dp19
S'tagId'
p20
I14
sS'pose'
p21
g2
(cgeometry_msgs.msg._PoseStamped
PoseStamped
p22
g4
Ntp23
Rp24
(lp25
g2
(cstd_msgs.msg._Header
Header
p26
g4
Ntp27
Rp28
(lp29
I0
ag2
(cgenpy.rostime
Time
p30
g4
Ntp31
Rp32
(lp33
I0
aI0
abaS'base_link'
p34
abag2
(cgeometry_msgs.msg._Pose
Pose
p35
g4
Ntp36
Rp37
(lp38
(F0.4626368961246337
F0.3889668488624386
F0.9535023396206157
tp39
a(F0.950537669442874
F-0.30819448833644403
F0.024324298283532355
F0.03004371551857166
tp40
ababsS'absolute'
p41
I00
sS'former_tag_pose'
p42
g2
(car_track_alvar_msgs.msg._AlvarMarker
AlvarMarker
p43
g4
Ntp44
Rp45
(lp46
g2
(g26
g4
Ntp47
Rp48
(lp49
I0
ag2
(g30
g4
Ntp50
Rp51
(lp52
I1496534141
aI205934040
abaS'base_link'
p53
abaI14
aI0
ag2
(g22
g4
Ntp54
Rp55
(lp56
g2
(g26
g4
Ntp57
Rp58
(lp59
I0
ag2
(g30
g4
Ntp60
Rp61
(lp62
I0
aI0
abaS''
p63
abag2
(g35
g4
Ntp64
Rp65
(lp66
g2
(cgeometry_msgs.msg._Point
Point
p67
g4
Ntp68
Rp69
(lp70
F0.7252527426757105
aF0.13419302046011772
aF0.871857402561543
abag2
(cgeometry_msgs.msg._Quaternion
Quaternion
p71
g4
Ntp72
Rp73
(lp74
F0.02276620056518704
aF-0.7299667026057356
aF0.007320646103301811
aF0.6830642146528872
ababababsbag2
(g16
g4
Ntp75
Rp76
(dp77
g20
I14
sg21
g2
(g22
g4
Ntp78
Rp79
(lp80
g2
(g26
g4
Ntp81
Rp82
(lp83
I0
ag2
(g30
g4
Ntp84
Rp85
(lp86
I0
aI0
abag34
abag2
(g35
g4
Ntp87
Rp88
(lp89
(F0.6468799440450957
F0.260885318107394
F0.9197765179629508
tp90
a(F0.9123795827302879
F-0.4035003551124524
F-0.014027735133585077
F0.06748468780436728
tp91
ababsg41
I00
sg42
g2
(g43
g4
Ntp92
Rp93
(lp94
g2
(g26
g4
Ntp95
Rp96
(lp97
I0
ag2
(g30
g4
Ntp98
Rp99
(lp100
I1496534184
aI350368254
abaS'base_link'
p101
abaI14
aI0
ag2
(g22
g4
Ntp102
Rp103
(lp104
g2
(g26
g4
Ntp105
Rp106
(lp107
I0
ag2
(g30
g4
Ntp108
Rp109
(lp110
I0
aI0
abag63
abag2
(g35
g4
Ntp111
Rp112
(lp113
g2
(g67
g4
Ntp114
Rp115
(lp116
F0.7418500201472904
aF0.08300147264847257
aF0.873106496300779
abag2
(g71
g4
Ntp117
Rp118
(lp119
F0.04922835392408585
aF-0.7061637298613902
aF0.039106642618800876
aF0.7052517467551996
ababababsbag2
(g10
g4
Ntp120
Rp121
(dp122
g14
I75
sg15
I00
sbag2
(g16
g4
Ntp123
Rp124
(dp125
g20
I14
sg21
g2
(g22
g4
Ntp126
Rp127
(lp128
g2
(g26
g4
Ntp129
Rp130
(lp131
I0
ag2
(g30
g4
Ntp132
Rp133
(lp134
I0
aI0
abag34
abag2
(g35
g4
Ntp135
Rp136
(lp137
(F0.4192355359874485
F0.5484993065474577
F0.9318153584282448
tp138
a(F0.9884435673630128
F-0.13551990306958908
F0.019289055139814222
F0.06512758526541407
tp139
ababsg41
I00
sg42
g2
(g43
g4
Ntp140
Rp141
(lp142
g2
(g26
g4
Ntp143
Rp144
(lp145
I0
ag2
(g30
g4
Ntp146
Rp147
(lp148
I1496534198
aI865169994
abaS'base_link'
p149
abaI14
aI0
ag2
(g22
g4
Ntp150
Rp151
(lp152
g2
(g26
g4
Ntp153
Rp154
(lp155
I0
ag2
(g30
g4
Ntp156
Rp157
(lp158
I0
aI0
abag63
abag2
(g35
g4
Ntp159
Rp160
(lp161
g2
(g67
g4
Ntp162
Rp163
(lp164
F0.7434674599512965
aF0.08071062213802489
aF0.8722205218532126
abag2
(g71
g4
Ntp165
Rp166
(lp167
F0.028996865513394872
aF-0.7015389291432695
aF0.07833550799005197
aF0.7077187724476814
ababababsbasbsS'b4thirdshelf'
p168
g2
(g3
g4
Ntp169
Rp170
(dp171
g8
(lp172
g2
(c__main__
TorsoAction
p173
g4
Ntp174
Rp175
(dp176
S'height'
p177
F0.4
sbag2
(c__main__
HeadAction
p178
g4
Ntp179
Rp180
(dp181
S'args'
p182
(lp183
S'pan_tilt'
p184
aS'0'
p185
aS'0.35'
p186
asS'torso'
p187
NsbasbsS'tuck'
p188
g2
(g3
g4
Ntp189
Rp190
(dp191
g8
(lp192
g2
(c__main__
TuckAction
p193
g4
Ntp194
Rp195
asbsS'drop'
p196
g2
(g3
g4
Ntp197
Rp198
(dp199
g8
(lp200
g2
(g16
g4
Ntp201
Rp202
(dp203
S'tagId'
p204
NsS'pose'
p205
g2
(g22
g4
Ntp206
Rp207
(lp208
g2
(g26
g4
Ntp209
Rp210
(lp211
I0
ag2
(g30
g4
Ntp212
Rp213
(lp214
I0
aI0
abaS'base_link'
p215
abag2
(g35
g4
Ntp216
Rp217
(lp218
(F0.44461175000087944
F0.09821170863245346
F1.0499838979667877
tp219
a(F0.7008423562582952
F-0.6886521175082365
F0.1496052103729388
F0.11043791810339194
tp220
ababsS'absolute'
p221
I01
sS'former_tag_pose'
p222
Nsbag2
(g16
g4
Ntp223
Rp224
(dp225
g204
Nsg205
g2
(g22
g4
Ntp226
Rp227
(lp228
g2
(g26
g4
Ntp229
Rp230
(lp231
I0
ag2
(g30
g4
Ntp232
Rp233
(lp234
I0
aI0
abag215
abag2
(g35
g4
Ntp235
Rp236
(lp237
(F0.4220091618013227
F-0.14015606014869175
F0.9522968074264868
tp238
a(F-0.42394266992995167
F0.8928982010551284
F0.14938207047658755
F0.026275695714999592
tp239
ababsg221
I01
sg222
Nsbag2
(g16
g4
Ntp240
Rp241
(dp242
g204
Nsg205
g2
(g22
g4
Ntp243
Rp244
(lp245
g2
(g26
g4
Ntp246
Rp247
(lp248
I0
ag2
(g30
g4
Ntp249
Rp250
(lp251
I0
aI0
abag215
abag2
(g35
g4
Ntp252
Rp253
(lp254
(F0.24702433887002112
F-0.08771637463348067
F0.7717111216459742
tp255
a(F0.0036090275217821807
F0.8618130800539496
F0.3990859043049268
F0.31304253856846725
tp256
ababsg221
I01
sg222
Nsbag2
(g10
g4
Ntp257
Rp258
(dp259
S'effort'
p260
I75
sS'open'
p261
I01
sbasbsS'moveforward'
p262
g2
(g3
g4
Ntp263
Rp264
(dp265
g8
(lp266
g2
(c__main__
BaseAction
p267
g4
Ntp268
Rp269
(dp270
S'distance'
p271
F0.4
sbasbsS'test'
p272
g2
(g3
g4
Ntp273
Rp274
(dp275
g8
(lp276
g2
(g10
g4
Ntp277
Rp278
(dp279
S'effort'
p280
I75
sS'open'
p281
I00
sbag2
(g10
g4
Ntp282
Rp283
(dp284
g280
I75
sg281
I01
sbasbsS'moveback'
p285
g2
(g3
g4
Ntp286
Rp287
(dp288
g8
(lp289
g2
(g267
g4
Ntp290
Rp291
(dp292
g271
F-0.4
sbasbsS'left'
p293
g2
(g3
g4
Ntp294
Rp295
(dp296
g8
(lp297
g2
(g10
g4
Ntp298
Rp299
(dp300
S'open'
p301
I01
sS'effort'
p302
I75
sbag2
(g16
g4
Ntp303
Rp304
(dp305
S'tagId'
p306
I14
sS'pose'
p307
g2
(g22
g4
Ntp308
Rp309
(lp310
g2
(g26
g4
Ntp311
Rp312
(lp313
I0
ag2
(g30
g4
Ntp314
Rp315
(lp316
I0
aI0
abaS'base_link'
p317
abag2
(g35
g4
Ntp318
Rp319
(lp320
(F0.4872819031230557
F0.38397392736332225
F0.9632060662837532
tp321
a(F0.9529142536510237
F-0.301712275748407
F0.0019917617647075433
F0.03033415132325887
tp322
ababsS'absolute'
p323
I00
sS'former_tag_pose'
p324
g2
(g43
g4
Ntp325
Rp326
(lp327
g2
(g26
g4
Ntp328
Rp329
(lp330
I0
ag2
(g30
g4
Ntp331
Rp332
(lp333
I1496533157
aI326106064
abaS'base_link'
p334
abaI14
aI0
ag2
(g22
g4
Ntp335
Rp336
(lp337
g2
(g26
g4
Ntp338
Rp339
(lp340
I0
ag2
(g30
g4
Ntp341
Rp342
(lp343
I0
aI0
abag63
abag2
(g35
g4
Ntp344
Rp345
(lp346
g2
(g67
g4
Ntp347
Rp348
(lp349
F0.7324142373168343
aF0.10347180459943907
aF0.8794920943996611
abag2
(g71
g4
Ntp350
Rp351
(lp352
F0.03326608023095315
aF-0.7108877729293341
aF0.027075541922043762
aF0.7019963370525995
ababababsbag2
(g16
g4
Ntp353
Rp354
(dp355
g306
I14
sg307
g2
(g22
g4
Ntp356
Rp357
(lp358
g2
(g26
g4
Ntp359
Rp360
(lp361
I0
ag2
(g30
g4
Ntp362
Rp363
(lp364
I0
aI0
abag317
abag2
(g35
g4
Ntp365
Rp366
(lp367
(F0.6948273201515593
F0.31606069232155404
F0.9255027011935303
tp368
a(F0.8309305535101029
F-0.5548663224349498
F0.039239544411053116
F-0.011748941455353473
tp369
ababsg323
I00
sg324
g2
(g43
g4
Ntp370
Rp371
(lp372
g2
(g26
g4
Ntp373
Rp374
(lp375
I0
ag2
(g30
g4
Ntp376
Rp377
(lp378
I1496533177
aI346788160
abaS'base_link'
p379
abaI14
aI0
ag2
(g22
g4
Ntp380
Rp381
(lp382
g2
(g26
g4
Ntp383
Rp384
(lp385
I0
ag2
(g30
g4
Ntp386
Rp387
(lp388
I0
aI0
abag63
abag2
(g35
g4
Ntp389
Rp390
(lp391
g2
(g67
g4
Ntp392
Rp393
(lp394
F0.7304341738253195
aF0.10521772665143997
aF0.8826459108222617
abag2
(g71
g4
Ntp395
Rp396
(lp397
F-9.108554312111957e-05
aF-0.7143130973979552
aF0.04490135400494384
aF0.6983843204122538
ababababsbag2
(g10
g4
Ntp398
Rp399
(dp400
g301
I00
sg302
I75
sbag2
(g16
g4
Ntp401
Rp402
(dp403
g306
I14
sg307
g2
(g22
g4
Ntp404
Rp405
(lp406
g2
(g26
g4
Ntp407
Rp408
(lp409
I0
ag2
(g30
g4
Ntp410
Rp411
(lp412
I0
aI0
abag317
abag2
(g35
g4
Ntp413
Rp414
(lp415
(F0.4781115579793584
F0.4753850755823864
F0.9592930362539924
tp416
a(F0.8852104030180744
F-0.46352945455188727
F0.037717007263528814
F-0.010973354750986165
tp417
ababsg323
I00
sg324
g2
(g43
g4
Ntp418
Rp419
(lp420
g2
(g26
g4
Ntp421
Rp422
(lp423
I0
ag2
(g30
g4
Ntp424
Rp425
(lp426
I1496533208
aI245363466
abaS'base_link'
p427
abaI14
aI0
ag2
(g22
g4
Ntp428
Rp429
(lp430
g2
(g26
g4
Ntp431
Rp432
(lp433
I0
ag2
(g30
g4
Ntp434
Rp435
(lp436
I0
aI0
abag63
abag2
(g35
g4
Ntp437
Rp438
(lp439
g2
(g67
g4
Ntp440
Rp441
(lp442
F0.7321760393223484
aF0.10359143549583637
aF0.8795991951373265
abag2
(g71
g4
Ntp443
Rp444
(lp445
F0.007243026462332535
aF-0.7082504011049415
aF0.05382220285794462
aF0.70386936172977
ababababsbasbsS'front'
p446
g2
(g3
g4
Ntp447
Rp448
(dp449
g8
(lp450
g2
(g10
g4
Ntp451
Rp452
(dp453
S'effort'
p454
I75
sS'open'
p455
I01
sbag2
(g16
g4
Ntp456
Rp457
(dp458
S'tagId'
p459
I0
sS'pose'
p460
g2
(g22
g4
Ntp461
Rp462
(lp463
g2
(g26
g4
Ntp464
Rp465
(lp466
I0
ag2
(g30
g4
Ntp467
Rp468
(lp469
I0
aI0
abaS'base_link'
p470
abag2
(g35
g4
Ntp471
Rp472
(lp473
(F0.6864985632686984
F-0.10604289175556181
F0.9012756521555066
tp474
a(F0.9974927403878011
F0.06820568919315928
F0.016817395769437398
F-0.008566915130607483
tp475
ababsS'absolute'
p476
I00
sS'former_tag_pose'
p477
g2
(g43
g4
Ntp478
Rp479
(lp480
g2
(g26
g4
Ntp481
Rp482
(lp483
I0
ag2
(g30
g4
Ntp484
Rp485
(lp486
I1496540965
aI136316769
abaS'base_link'
p487
abaI0
aI0
ag2
(g22
g4
Ntp488
Rp489
(lp490
g2
(g26
g4
Ntp491
Rp492
(lp493
I0
ag2
(g30
g4
Ntp494
Rp495
(lp496
I0
aI0
abag63
abag2
(g35
g4
Ntp497
Rp498
(lp499
g2
(g67
g4
Ntp500
Rp501
(lp502
F0.971378888671062
aF-0.04950018998047996
aF0.981303896160947
abag2
(g71
g4
Ntp503
Rp504
(lp505
F0.04139117045463168
aF-0.7454093763382906
aF0.07252725049716499
aF0.661355751929835
ababababsbag2
(g16
g4
Ntp506
Rp507
(dp508
g459
I0
sg460
g2
(g22
g4
Ntp509
Rp510
(lp511
g2
(g26
g4
Ntp512
Rp513
(lp514
I0
ag2
(g30
g4
Ntp515
Rp516
(lp517
I0
aI0
abag470
abag2
(g35
g4
Ntp518
Rp519
(lp520
(F0.8046522820572956
F-0.08090030405155646
F0.9243231747437821
tp521
a(F0.9960997585610063
F0.08769414444085685
F0.0023098726820754488
F0.009469557206322086
tp522
ababsg476
I00
sg477
g2
(g43
g4
Ntp523
Rp524
(lp525
g2
(g26
g4
Ntp526
Rp527
(lp528
I0
ag2
(g30
g4
Ntp529
Rp530
(lp531
I1496541051
aI859036200
abaS'base_link'
p532
abaI0
aI0
ag2
(g22
g4
Ntp533
Rp534
(lp535
g2
(g26
g4
Ntp536
Rp537
(lp538
I0
ag2
(g30
g4
Ntp539
Rp540
(lp541
I0
aI0
abag63
abag2
(g35
g4
Ntp542
Rp543
(lp544
g2
(g67
g4
Ntp545
Rp546
(lp547
F0.9538942771319905
aF-0.04189379141372165
aF0.992551609289914
abag2
(g71
g4
Ntp548
Rp549
(lp550
F0.04008505029972966
aF-0.7490582706888771
aF0.0480535252173061
aF0.6595420794530454
ababababsbag2
(g10
g4
Ntp551
Rp552
(dp553
g454
I75
sg455
I00
sbasbsS'b4secondshelf'
p554
g2
(g3
g4
Ntp555
Rp556
(dp557
g8
(lp558
g2
(g173
g4
Ntp559
Rp560
(dp561
g177
F0.3
sbag2
(g178
g4
Ntp562
Rp563
(dp564
g182
(lp565
S'pan_tilt'
p566
ag185
aS'0.707'
p567
asg187
NsbasbsS'b4secondshelffar'
p568
g2
(g3
g4
Ntp569
Rp570
(dp571
g8
(lp572
g2
(g178
g4
Ntp573
Rp574
(dp575
S'args'
p576
(lp577
S'pan_tilt'
p578
aS'0'
p579
aS'0.60'
p580
asS'torso'
p581
Nsbag2
(g173
g4
Ntp582
Rp583
(dp584
S'height'
p585
F0.3
sbasbsS'raise'
p586
g2
(g3
g4
Ntp587
Rp588
(dp589
g8
(lp590
g2
(g173
g4
Ntp591
Rp592
(dp593
S'height'
p594
F0.4
sbag2
(g16
g4
Ntp595
Rp596
(dp597
S'tagId'
p598
NsS'pose'
p599
g2
(g22
g4
Ntp600
Rp601
(lp602
g2
(g26
g4
Ntp603
Rp604
(lp605
I0
ag2
(g30
g4
Ntp606
Rp607
(lp608
I0
aI0
abaS'base_link'
p609
abag2
(g35
g4
Ntp610
Rp611
(lp612
(F0.2655515088195862
F-0.3102143400758556
F0.8837143519607871
tp613
a(F-0.075328088490117
F0.9702033289122473
F0.18217805565112144
F0.14086282579586393
tp614
ababsS'absolute'
p615
I01
sS'former_tag_pose'
p616
Nsbasbs.