(dp0
S'box'
p1
ccopy_reg
_reconstructor
p2
(c__main__
DemonstrationProgram
p3
c__builtin__
object
p4
Ntp5
Rp6
(dp7
S'actions'
p8
(lp9
g2
(c__main__
GripperAction
p10
g4
Ntp11
Rp12
(dp13
S'open'
p14
I01
sbag2
(c__main__
MoveAction
p15
g4
Ntp16
Rp17
(dp18
S'tagId'
p19
NsS'pose'
p20
g2
(cgeometry_msgs.msg._PoseStamped
PoseStamped
p21
g4
Ntp22
Rp23
(lp24
g2
(cstd_msgs.msg._Header
Header
p25
g4
Ntp26
Rp27
(lp28
I0
ag2
(cgenpy.rostime
Time
p29
g4
Ntp30
Rp31
(lp32
I0
aI0
abaS'base_link'
p33
abag2
(cgeometry_msgs.msg._Pose
Pose
p34
g4
Ntp35
Rp36
(lp37
(F0.45771761589962373
F0.385805962629619
F0.7581525860976694
tp38
a(F-0.44385899083354724
F-0.42877772602147085
F-0.34403357892193037
F0.707657936080879
tp39
ababsS'absolute'
p40
I01
sS'former_tag_pose'
p41
Nsbag2
(g15
g4
Ntp42
Rp43
(dp44
g19
Nsg20
g2
(g21
g4
Ntp45
Rp46
(lp47
g2
(g25
g4
Ntp48
Rp49
(lp50
I0
ag2
(g29
g4
Ntp51
Rp52
(lp53
I0
aI0
abag33
abag2
(g34
g4
Ntp54
Rp55
(lp56
(F0.5628518740159586
F0.24214051869652284
F1.2511031498210161
tp57
a(F0.9357006426135034
F-0.3401990824321544
F0.0928889400754119
F-0.010026790945439394
tp58
ababsg40
I01
sg41
Nsbag2
(g15
g4
Ntp59
Rp60
(dp61
g19
Nsg20
g2
(g21
g4
Ntp62
Rp63
(lp64
g2
(g25
g4
Ntp65
Rp66
(lp67
I0
ag2
(g29
g4
Ntp68
Rp69
(lp70
I0
aI0
abag33
abag2
(g34
g4
Ntp71
Rp72
(lp73
(F0.902279623915341
F-0.010517422817273591
F0.9766743088897547
tp74
a(F0.9154566461894957
F-0.3210270475957377
F-0.2117051530211477
F-0.11858200472136074
tp75
ababsg40
I01
sg41
Nsbag2
(g10
g4
Ntp76
Rp77
(dp78
g14
I00
sbag2
(g15
g4
Ntp79
Rp80
(dp81
g19
Nsg20
g2
(g21
g4
Ntp82
Rp83
(lp84
g2
(g25
g4
Ntp85
Rp86
(lp87
I0
ag2
(g29
g4
Ntp88
Rp89
(lp90
I0
aI0
abag33
abag2
(g34
g4
Ntp91
Rp92
(lp93
(F0.6154079168540367
F0.21327557994322832
F1.230769778458102
tp94
a(F0.9504003684201986
F-0.27036256202699044
F0.15188963232631042
F0.023932495748054762
tp95
ababsg40
I01
sg41
Nsbag2
(c__main__
TuckAction
p96
g4
Ntp97
Rp98
asbsS'front'
p99
g2
(g3
g4
Ntp100
Rp101
(dp102
g8
(lp103
g2
(g10
g4
Ntp104
Rp105
(dp106
S'open'
p107
I01
sbag2
(g15
g4
Ntp108
Rp109
(dp110
S'tagId'
p111
I0
sS'pose'
p112
g2
(g21
g4
Ntp113
Rp114
(lp115
g2
(g25
g4
Ntp116
Rp117
(lp118
I0
ag2
(g29
g4
Ntp119
Rp120
(lp121
I0
aI0
abaS'base_link'
p122
abag2
(g34
g4
Ntp123
Rp124
(lp125
(F0.1849255193278141
F0.15072710434355516
F0.8722301008847899
tp126
a(F-0.044061437993182004
F-0.0494921157990678
F-0.019618175793956798
F0.9976092658622524
tp127
ababsS'absolute'
p128
I00
sS'former_tag_pose'
p129
g2
(car_track_alvar_msgs.msg._AlvarMarker
AlvarMarker
p130
g4
Ntp131
Rp132
(lp133
g2
(g25
g4
Ntp134
Rp135
(lp136
I0
ag2
(g29
g4
Ntp137
Rp138
(lp139
I1496017533
aI134590857
abaS'base_link'
p140
abaI0
aI0
ag2
(g21
g4
Ntp141
Rp142
(lp143
g2
(g25
g4
Ntp144
Rp145
(lp146
I0
ag2
(g29
g4
Ntp147
Rp148
(lp149
I0
aI0
abaS''
p150
abag2
(g34
g4
Ntp151
Rp152
(lp153
g2
(cgeometry_msgs.msg._Point
Point
p154
g4
Ntp155
Rp156
(lp157
F0.6861920726754278
aF0.08410455930350072
aF0.9317233364045597
abag2
(cgeometry_msgs.msg._Quaternion
Quaternion
p158
g4
Ntp159
Rp160
(lp161
F0.7227898274152103
aF-0.0020000583800490784
aF-0.6897984353640779
aF-0.04182085270337108
ababababsbag2
(g15
g4
Ntp162
Rp163
(dp164
g111
I0
sg112
g2
(g21
g4
Ntp165
Rp166
(lp167
g2
(g25
g4
Ntp168
Rp169
(lp170
I0
ag2
(g29
g4
Ntp171
Rp172
(lp173
I0
aI0
abag122
abag2
(g34
g4
Ntp174
Rp175
(lp176
(F0.19303580323200237
F-0.05680492987476359
F0.8247162669373516
tp177
a(F-0.27832179760130876
F-0.08240605636557698
F0.0122644652251363
F0.9568677033670804
tp178
ababsg128
I00
sg129
g2
(g130
g4
Ntp179
Rp180
(lp181
g2
(g25
g4
Ntp182
Rp183
(lp184
I0
ag2
(g29
g4
Ntp185
Rp186
(lp187
I1496017611
aI715464108
abaS'base_link'
p188
abaI0
aI0
ag2
(g21
g4
Ntp189
Rp190
(lp191
g2
(g25
g4
Ntp192
Rp193
(lp194
I0
ag2
(g29
g4
Ntp195
Rp196
(lp197
I0
aI0
abag150
abag2
(g34
g4
Ntp198
Rp199
(lp200
g2
(g154
g4
Ntp201
Rp202
(lp203
F0.6754569942686037
aF-0.1572197683959744
aF0.8738015457169239
abag2
(g158
g4
Ntp204
Rp205
(lp206
F-0.6988786192551173
aF0.004074244711926421
aF0.7136697338527064
aF-0.04719732048215661
ababababsbag2
(g15
g4
Ntp207
Rp208
(dp209
g111
I0
sg112
g2
(g21
g4
Ntp210
Rp211
(lp212
g2
(g25
g4
Ntp213
Rp214
(lp215
I0
ag2
(g29
g4
Ntp216
Rp217
(lp218
I0
aI0
abag122
abag2
(g34
g4
Ntp219
Rp220
(lp221
(F0.39530850501618675
F-0.14910635859217042
F0.8388966680655776
tp222
a(F-0.05090382157403684
F0.0276181753541753
F-0.016357917594273078
F0.9981875855124845
tp223
ababsg128
I00
sg129
g2
(g130
g4
Ntp224
Rp225
(lp226
g2
(g25
g4
Ntp227
Rp228
(lp229
I0
ag2
(g29
g4
Ntp230
Rp231
(lp232
I1496017654
aI559754364
abaS'base_link'
p233
abaI0
aI0
ag2
(g21
g4
Ntp234
Rp235
(lp236
g2
(g25
g4
Ntp237
Rp238
(lp239
I0
ag2
(g29
g4
Ntp240
Rp241
(lp242
I0
aI0
abag150
abag2
(g34
g4
Ntp243
Rp244
(lp245
g2
(g154
g4
Ntp246
Rp247
(lp248
F0.6750542457693633
aF-0.1573962507275581
aF0.8754992186972226
abag2
(g158
g4
Ntp249
Rp250
(lp251
F0.46507844127880643
aF-0.5258018009041492
aF-0.4371355779070368
aF0.5622695049097991
ababababsbag2
(g15
g4
Ntp252
Rp253
(dp254
g111
I0
sg112
g2
(g21
g4
Ntp255
Rp256
(lp257
g2
(g25
g4
Ntp258
Rp259
(lp260
I0
ag2
(g29
g4
Ntp261
Rp262
(lp263
I0
aI0
abag122
abag2
(g34
g4
Ntp264
Rp265
(lp266
(F0.5404063183421436
F-0.14648085397873725
F0.8259404909007203
tp267
a(F-0.039611799126482335
F0.033880416490549396
F-0.02582385002695631
F0.9983066420284779
tp268
ababsg128
I00
sg129
g2
(g130
g4
Ntp269
Rp270
(lp271
g2
(g25
g4
Ntp272
Rp273
(lp274
I0
ag2
(g29
g4
Ntp275
Rp276
(lp277
I1496017680
aI252809994
abaS'base_link'
p278
abaI0
aI0
ag2
(g21
g4
Ntp279
Rp280
(lp281
g2
(g25
g4
Ntp282
Rp283
(lp284
I0
ag2
(g29
g4
Ntp285
Rp286
(lp287
I0
aI0
abag150
abag2
(g34
g4
Ntp288
Rp289
(lp290
g2
(g154
g4
Ntp291
Rp292
(lp293
F0.6812854242026336
aF-0.1518002213728251
aF0.8745625452780321
abag2
(g158
g4
Ntp294
Rp295
(lp296
F0.7170894990131991
aF-0.001667216264814658
aF-0.6968983599407472
aF-0.0106088032700448
ababababsbag2
(g10
g4
Ntp297
Rp298
(dp299
g107
I00
sbag2
(g15
g4
Ntp300
Rp301
(dp302
g111
Nsg112
g2
(g21
g4
Ntp303
Rp304
(lp305
g2
(g25
g4
Ntp306
Rp307
(lp308
I0
ag2
(g29
g4
Ntp309
Rp310
(lp311
I0
aI0
abag122
abag2
(g34
g4
Ntp312
Rp313
(lp314
(F0.33214584886850906
F-0.131031470159653
F0.9461494736599305
tp315
a(F0.0006226183258941962
F-0.04335464927555006
F0.016497538816039325
F0.9989233293629834
tp316
ababsg128
I01
sg129
Nsbag2
(g15
g4
Ntp317
Rp318
(dp319
g111
Nsg112
g2
(g21
g4
Ntp320
Rp321
(lp322
g2
(g25
g4
Ntp323
Rp324
(lp325
I0
ag2
(g29
g4
Ntp326
Rp327
(lp328
I0
aI0
abag122
abag2
(g34
g4
Ntp329
Rp330
(lp331
(F0.19112393733051442
F-0.08733220605366096
F0.8044226046886778
tp332
a(F0.4311189103438366
F0.7495810687905624
F-0.2277105690873094
F0.4476746622053505
tp333
ababsg128
I01
sg129
Nsbag2
(g10
g4
Ntp334
Rp335
(dp336
g107
I01
sbasbs.