(dp0
S'b4secondshelf'
p1
ccopy_reg
_reconstructor
p2
(c__main__
DemonstrationProgram
p3
c__builtin__
object
p4
Ntp5
Rp6
(dp7
S'actions'
p8
(lp9
g2
(c__main__
TorsoAction
p10
g4
Ntp11
Rp12
(dp13
S'height'
p14
F0.3
sbag2
(c__main__
HeadAction
p15
g4
Ntp16
Rp17
(dp18
S'args'
p19
(lp20
S'pan_tilt'
p21
aS'0'
p22
aS'0.707'
p23
asS'torso'
p24
NsbasbsS'left1'
p25
g2
(g3
g4
Ntp26
Rp27
(dp28
g8
(lp29
g2
(c__main__
GripperAction
p30
g4
Ntp31
Rp32
(dp33
S'open'
p34
I01
sS'effort'
p35
I75
sbag2
(c__main__
MoveAction
p36
g4
Ntp37
Rp38
(dp39
S'tagId'
p40
I14
sS'pose'
p41
g2
(cgeometry_msgs.msg._PoseStamped
PoseStamped
p42
g4
Ntp43
Rp44
(lp45
g2
(cstd_msgs.msg._Header
Header
p46
g4
Ntp47
Rp48
(lp49
I0
ag2
(cgenpy.rostime
Time
p50
g4
Ntp51
Rp52
(lp53
I0
aI0
abaS'base_link'
p54
abag2
(cgeometry_msgs.msg._Pose
Pose
p55
g4
Ntp56
Rp57
(lp58
(F0.4626368961246337
F0.3889668488624386
F0.9535023396206157
tp59
a(F0.950537669442874
F-0.30819448833644403
F0.024324298283532355
F0.03004371551857166
tp60
ababsS'absolute'
p61
I00
sS'former_tag_pose'
p62
g2
(car_track_alvar_msgs.msg._AlvarMarker
AlvarMarker
p63
g4
Ntp64
Rp65
(lp66
g2
(g46
g4
Ntp67
Rp68
(lp69
I0
ag2
(g50
g4
Ntp70
Rp71
(lp72
I1496534141
aI205934040
abaS'base_link'
p73
abaI14
aI0
ag2
(g42
g4
Ntp74
Rp75
(lp76
g2
(g46
g4
Ntp77
Rp78
(lp79
I0
ag2
(g50
g4
Ntp80
Rp81
(lp82
I0
aI0
abaS''
p83
abag2
(g55
g4
Ntp84
Rp85
(lp86
g2
(cgeometry_msgs.msg._Point
Point
p87
g4
Ntp88
Rp89
(lp90
F0.7252527426757105
aF0.13419302046011772
aF0.871857402561543
abag2
(cgeometry_msgs.msg._Quaternion
Quaternion
p91
g4
Ntp92
Rp93
(lp94
F0.02276620056518704
aF-0.7299667026057356
aF0.007320646103301811
aF0.6830642146528872
ababababsbag2
(g36
g4
Ntp95
Rp96
(dp97
g40
I14
sg41
g2
(g42
g4
Ntp98
Rp99
(lp100
g2
(g46
g4
Ntp101
Rp102
(lp103
I0
ag2
(g50
g4
Ntp104
Rp105
(lp106
I0
aI0
abag54
abag2
(g55
g4
Ntp107
Rp108
(lp109
(F0.6468799440450957
F0.260885318107394
F0.9197765179629508
tp110
a(F0.9123795827302879
F-0.4035003551124524
F-0.014027735133585077
F0.06748468780436728
tp111
ababsg61
I00
sg62
g2
(g63
g4
Ntp112
Rp113
(lp114
g2
(g46
g4
Ntp115
Rp116
(lp117
I0
ag2
(g50
g4
Ntp118
Rp119
(lp120
I1496534184
aI350368254
abaS'base_link'
p121
abaI14
aI0
ag2
(g42
g4
Ntp122
Rp123
(lp124
g2
(g46
g4
Ntp125
Rp126
(lp127
I0
ag2
(g50
g4
Ntp128
Rp129
(lp130
I0
aI0
abag83
abag2
(g55
g4
Ntp131
Rp132
(lp133
g2
(g87
g4
Ntp134
Rp135
(lp136
F0.7418500201472904
aF0.08300147264847257
aF0.873106496300779
abag2
(g91
g4
Ntp137
Rp138
(lp139
F0.04922835392408585
aF-0.7061637298613902
aF0.039106642618800876
aF0.7052517467551996
ababababsbag2
(g30
g4
Ntp140
Rp141
(dp142
g34
I00
sg35
I75
sbag2
(g36
g4
Ntp143
Rp144
(dp145
g40
I14
sg41
g2
(g42
g4
Ntp146
Rp147
(lp148
g2
(g46
g4
Ntp149
Rp150
(lp151
I0
ag2
(g50
g4
Ntp152
Rp153
(lp154
I0
aI0
abag54
abag2
(g55
g4
Ntp155
Rp156
(lp157
(F0.4192355359874485
F0.5484993065474577
F0.9318153584282448
tp158
a(F0.9884435673630128
F-0.13551990306958908
F0.019289055139814222
F0.06512758526541407
tp159
ababsg61
I00
sg62
g2
(g63
g4
Ntp160
Rp161
(lp162
g2
(g46
g4
Ntp163
Rp164
(lp165
I0
ag2
(g50
g4
Ntp166
Rp167
(lp168
I1496534198
aI865169994
abaS'base_link'
p169
abaI14
aI0
ag2
(g42
g4
Ntp170
Rp171
(lp172
g2
(g46
g4
Ntp173
Rp174
(lp175
I0
ag2
(g50
g4
Ntp176
Rp177
(lp178
I0
aI0
abag83
abag2
(g55
g4
Ntp179
Rp180
(lp181
g2
(g87
g4
Ntp182
Rp183
(lp184
F0.7434674599512965
aF0.08071062213802489
aF0.8722205218532126
abag2
(g91
g4
Ntp185
Rp186
(lp187
F0.028996865513394872
aF-0.7015389291432695
aF0.07833550799005197
aF0.7077187724476814
ababababsbasbsS'b4thirdshelf'
p188
g2
(g3
g4
Ntp189
Rp190
(dp191
g8
(lp192
g2
(g10
g4
Ntp193
Rp194
(dp195
g14
F0.4
sbag2
(g15
g4
Ntp196
Rp197
(dp198
g19
(lp199
S'pan_tilt'
p200
ag22
aS'0.35'
p201
asg24
NsbasbsS'drop'
p202
g2
(g3
g4
Ntp203
Rp204
(dp205
g8
(lp206
g2
(g36
g4
Ntp207
Rp208
(dp209
S'tagId'
p210
NsS'pose'
p211
g2
(g42
g4
Ntp212
Rp213
(lp214
g2
(g46
g4
Ntp215
Rp216
(lp217
I0
ag2
(g50
g4
Ntp218
Rp219
(lp220
I0
aI0
abaS'base_link'
p221
abag2
(g55
g4
Ntp222
Rp223
(lp224
(F0.44461175000087944
F0.09821170863245346
F1.0499838979667877
tp225
a(F0.7008423562582952
F-0.6886521175082365
F0.1496052103729388
F0.11043791810339194
tp226
ababsS'absolute'
p227
I01
sS'former_tag_pose'
p228
Nsbag2
(g36
g4
Ntp229
Rp230
(dp231
g210
Nsg211
g2
(g42
g4
Ntp232
Rp233
(lp234
g2
(g46
g4
Ntp235
Rp236
(lp237
I0
ag2
(g50
g4
Ntp238
Rp239
(lp240
I0
aI0
abag221
abag2
(g55
g4
Ntp241
Rp242
(lp243
(F0.4220091618013227
F-0.14015606014869175
F0.9522968074264868
tp244
a(F-0.42394266992995167
F0.8928982010551284
F0.14938207047658755
F0.026275695714999592
tp245
ababsg227
I01
sg228
Nsbag2
(g36
g4
Ntp246
Rp247
(dp248
g210
Nsg211
g2
(g42
g4
Ntp249
Rp250
(lp251
g2
(g46
g4
Ntp252
Rp253
(lp254
I0
ag2
(g50
g4
Ntp255
Rp256
(lp257
I0
aI0
abag221
abag2
(g55
g4
Ntp258
Rp259
(lp260
(F0.24702433887002112
F-0.08771637463348067
F0.7717111216459742
tp261
a(F0.0036090275217821807
F0.8618130800539496
F0.3990859043049268
F0.31304253856846725
tp262
ababsg227
I01
sg228
Nsbag2
(g30
g4
Ntp263
Rp264
(dp265
S'open'
p266
I01
sS'effort'
p267
I75
sbasbsS'sunleft'
p268
g2
(g3
g4
Ntp269
Rp270
(dp271
g8
(lp272
g2
(g30
g4
Ntp273
Rp274
(dp275
S'effort'
p276
I75
sS'open'
p277
I01
sbag2
(g36
g4
Ntp278
Rp279
(dp280
S'tagId'
p281
I14
sS'pose'
p282
g2
(g42
g4
Ntp283
Rp284
(lp285
g2
(g46
g4
Ntp286
Rp287
(lp288
I0
ag2
(g50
g4
Ntp289
Rp290
(lp291
I0
aI0
abaS'base_link'
p292
abag2
(g55
g4
Ntp293
Rp294
(lp295
(F0.46715139524334887
F0.5729127761305333
F1.314853523652869
tp296
a(F0.9615953692213256
F-0.27373569762403344
F0.01898060306789438
F0.006546025172975675
tp297
ababsS'absolute'
p298
I00
sS'former_tag_pose'
p299
g2
(g63
g4
Ntp300
Rp301
(lp302
g2
(g46
g4
Ntp303
Rp304
(lp305
I0
ag2
(g50
g4
Ntp306
Rp307
(lp308
I1496623208
aI744343273
abaS'base_link'
p309
abaI14
aI0
ag2
(g42
g4
Ntp310
Rp311
(lp312
g2
(g46
g4
Ntp313
Rp314
(lp315
I0
ag2
(g50
g4
Ntp316
Rp317
(lp318
I0
aI0
abag83
abag2
(g55
g4
Ntp319
Rp320
(lp321
g2
(g87
g4
Ntp322
Rp323
(lp324
F0.7605601823692806
aF0.22669715383736014
aF1.2350039561901174
abag2
(g91
g4
Ntp325
Rp326
(lp327
F0.06536718834919072
aF-0.7245035940167787
aF0.07038200723864266
aF0.682545270294324
ababababsbag2
(g36
g4
Ntp328
Rp329
(dp330
g281
I14
sg282
g2
(g42
g4
Ntp331
Rp332
(lp333
g2
(g46
g4
Ntp334
Rp335
(lp336
I0
ag2
(g50
g4
Ntp337
Rp338
(lp339
I0
aI0
abag292
abag2
(g55
g4
Ntp340
Rp341
(lp342
(F0.6647296580420344
F0.40704652916374306
F1.2864682951762547
tp343
a(F0.9155440674311723
F-0.3994097677581626
F-0.005641362200025924
F0.04710703815231665
tp344
ababsg298
I00
sg299
g2
(g63
g4
Ntp345
Rp346
(lp347
g2
(g46
g4
Ntp348
Rp349
(lp350
I0
ag2
(g50
g4
Ntp351
Rp352
(lp353
I1496623222
aI992315523
abaS'base_link'
p354
abaI14
aI0
ag2
(g42
g4
Ntp355
Rp356
(lp357
g2
(g46
g4
Ntp358
Rp359
(lp360
I0
ag2
(g50
g4
Ntp361
Rp362
(lp363
I0
aI0
abag83
abag2
(g55
g4
Ntp364
Rp365
(lp366
g2
(g87
g4
Ntp367
Rp368
(lp369
F0.761255577223703
aF0.2237373234256126
aF1.2369558268212866
abag2
(g91
g4
Ntp370
Rp371
(lp372
F0.55515282885851
aF-0.4744192146529974
aF-0.41745831054670707
aF0.5407959914181282
ababababsbag2
(g30
g4
Ntp373
Rp374
(dp375
g276
I75
sg277
I00
sbasbsS'raise'
p376
g2
(g3
g4
Ntp377
Rp378
(dp379
g8
(lp380
g2
(g10
g4
Ntp381
Rp382
(dp383
S'height'
p384
F0.4
sbag2
(g36
g4
Ntp385
Rp386
(dp387
S'tagId'
p388
NsS'pose'
p389
g2
(g42
g4
Ntp390
Rp391
(lp392
g2
(g46
g4
Ntp393
Rp394
(lp395
I0
ag2
(g50
g4
Ntp396
Rp397
(lp398
I0
aI0
abaS'base_link'
p399
abag2
(g55
g4
Ntp400
Rp401
(lp402
(F0.2655515088195862
F-0.3102143400758556
F0.8837143519607871
tp403
a(F-0.075328088490117
F0.9702033289122473
F0.18217805565112144
F0.14086282579586393
tp404
ababsS'absolute'
p405
I01
sS'former_tag_pose'
p406
NsbasbsS'front'
p407
g2
(g3
g4
Ntp408
Rp409
(dp410
g8
(lp411
g2
(g30
g4
Ntp412
Rp413
(dp414
S'open'
p415
I01
sS'effort'
p416
I75
sbag2
(g36
g4
Ntp417
Rp418
(dp419
S'tagId'
p420
I0
sS'pose'
p421
g2
(g42
g4
Ntp422
Rp423
(lp424
g2
(g46
g4
Ntp425
Rp426
(lp427
I0
ag2
(g50
g4
Ntp428
Rp429
(lp430
I0
aI0
abaS'base_link'
p431
abag2
(g55
g4
Ntp432
Rp433
(lp434
(F0.6864985632686984
F-0.10604289175556181
F0.9012756521555066
tp435
a(F0.9974927403878011
F0.06820568919315928
F0.016817395769437398
F-0.008566915130607483
tp436
ababsS'absolute'
p437
I00
sS'former_tag_pose'
p438
g2
(g63
g4
Ntp439
Rp440
(lp441
g2
(g46
g4
Ntp442
Rp443
(lp444
I0
ag2
(g50
g4
Ntp445
Rp446
(lp447
I1496540965
aI136316769
abaS'base_link'
p448
abaI0
aI0
ag2
(g42
g4
Ntp449
Rp450
(lp451
g2
(g46
g4
Ntp452
Rp453
(lp454
I0
ag2
(g50
g4
Ntp455
Rp456
(lp457
I0
aI0
abag83
abag2
(g55
g4
Ntp458
Rp459
(lp460
g2
(g87
g4
Ntp461
Rp462
(lp463
F0.971378888671062
aF-0.04950018998047996
aF0.981303896160947
abag2
(g91
g4
Ntp464
Rp465
(lp466
F0.04139117045463168
aF-0.7454093763382906
aF0.07252725049716499
aF0.661355751929835
ababababsbag2
(g36
g4
Ntp467
Rp468
(dp469
g420
I0
sg421
g2
(g42
g4
Ntp470
Rp471
(lp472
g2
(g46
g4
Ntp473
Rp474
(lp475
I0
ag2
(g50
g4
Ntp476
Rp477
(lp478
I0
aI0
abag431
abag2
(g55
g4
Ntp479
Rp480
(lp481
(F0.8046522820572956
F-0.08090030405155646
F0.9243231747437821
tp482
a(F0.9960997585610063
F0.08769414444085685
F0.0023098726820754488
F0.009469557206322086
tp483
ababsg437
I00
sg438
g2
(g63
g4
Ntp484
Rp485
(lp486
g2
(g46
g4
Ntp487
Rp488
(lp489
I0
ag2
(g50
g4
Ntp490
Rp491
(lp492
I1496541051
aI859036200
abaS'base_link'
p493
abaI0
aI0
ag2
(g42
g4
Ntp494
Rp495
(lp496
g2
(g46
g4
Ntp497
Rp498
(lp499
I0
ag2
(g50
g4
Ntp500
Rp501
(lp502
I0
aI0
abag83
abag2
(g55
g4
Ntp503
Rp504
(lp505
g2
(g87
g4
Ntp506
Rp507
(lp508
F0.9538942771319905
aF-0.04189379141372165
aF0.992551609289914
abag2
(g91
g4
Ntp509
Rp510
(lp511
F0.04008505029972966
aF-0.7490582706888771
aF0.0480535252173061
aF0.6595420794530454
ababababsbag2
(g30
g4
Ntp512
Rp513
(dp514
g415
I00
sg416
I75
sbasbsS'b4secondshelffar'
p515
g2
(g3
g4
Ntp516
Rp517
(dp518
g8
(lp519
g2
(g15
g4
Ntp520
Rp521
(dp522
S'args'
p523
(lp524
S'pan_tilt'
p525
aS'0'
p526
aS'0.60'
p527
asS'torso'
p528
Nsbag2
(g10
g4
Ntp529
Rp530
(dp531
S'height'
p532
F0.3
sbasbsS'moveback'
p533
g2
(g3
g4
Ntp534
Rp535
(dp536
g8
(lp537
g2
(c__main__
BaseAction
p538
g4
Ntp539
Rp540
(dp541
S'distance'
p542
F-0.4
sbasbsS'test'
p543
g2
(g3
g4
Ntp544
Rp545
(dp546
g8
(lp547
g2
(g30
g4
Ntp548
Rp549
(dp550
S'open'
p551
I00
sS'effort'
p552
I75
sbag2
(g30
g4
Ntp553
Rp554
(dp555
g551
I01
sg552
I75
sbasbsS'left'
p556
g2
(g3
g4
Ntp557
Rp558
(dp559
g8
(lp560
g2
(g30
g4
Ntp561
Rp562
(dp563
S'effort'
p564
I75
sS'open'
p565
I01
sbag2
(g36
g4
Ntp566
Rp567
(dp568
S'tagId'
p569
I14
sS'pose'
p570
g2
(g42
g4
Ntp571
Rp572
(lp573
g2
(g46
g4
Ntp574
Rp575
(lp576
I0
ag2
(g50
g4
Ntp577
Rp578
(lp579
I0
aI0
abaS'base_link'
p580
abag2
(g55
g4
Ntp581
Rp582
(lp583
(F0.4872819031230557
F0.38397392736332225
F0.9632060662837532
tp584
a(F0.9529142536510237
F-0.301712275748407
F0.0019917617647075433
F0.03033415132325887
tp585
ababsS'absolute'
p586
I00
sS'former_tag_pose'
p587
g2
(g63
g4
Ntp588
Rp589
(lp590
g2
(g46
g4
Ntp591
Rp592
(lp593
I0
ag2
(g50
g4
Ntp594
Rp595
(lp596
I1496533157
aI326106064
abaS'base_link'
p597
abaI14
aI0
ag2
(g42
g4
Ntp598
Rp599
(lp600
g2
(g46
g4
Ntp601
Rp602
(lp603
I0
ag2
(g50
g4
Ntp604
Rp605
(lp606
I0
aI0
abag83
abag2
(g55
g4
Ntp607
Rp608
(lp609
g2
(g87
g4
Ntp610
Rp611
(lp612
F0.7324142373168343
aF0.10347180459943907
aF0.8794920943996611
abag2
(g91
g4
Ntp613
Rp614
(lp615
F0.03326608023095315
aF-0.7108877729293341
aF0.027075541922043762
aF0.7019963370525995
ababababsbag2
(g36
g4
Ntp616
Rp617
(dp618
g569
I14
sg570
g2
(g42
g4
Ntp619
Rp620
(lp621
g2
(g46
g4
Ntp622
Rp623
(lp624
I0
ag2
(g50
g4
Ntp625
Rp626
(lp627
I0
aI0
abag580
abag2
(g55
g4
Ntp628
Rp629
(lp630
(F0.6948273201515593
F0.31606069232155404
F0.9255027011935303
tp631
a(F0.8309305535101029
F-0.5548663224349498
F0.039239544411053116
F-0.011748941455353473
tp632
ababsg586
I00
sg587
g2
(g63
g4
Ntp633
Rp634
(lp635
g2
(g46
g4
Ntp636
Rp637
(lp638
I0
ag2
(g50
g4
Ntp639
Rp640
(lp641
I1496533177
aI346788160
abaS'base_link'
p642
abaI14
aI0
ag2
(g42
g4
Ntp643
Rp644
(lp645
g2
(g46
g4
Ntp646
Rp647
(lp648
I0
ag2
(g50
g4
Ntp649
Rp650
(lp651
I0
aI0
abag83
abag2
(g55
g4
Ntp652
Rp653
(lp654
g2
(g87
g4
Ntp655
Rp656
(lp657
F0.7304341738253195
aF0.10521772665143997
aF0.8826459108222617
abag2
(g91
g4
Ntp658
Rp659
(lp660
F-9.108554312111957e-05
aF-0.7143130973979552
aF0.04490135400494384
aF0.6983843204122538
ababababsbag2
(g30
g4
Ntp661
Rp662
(dp663
g564
I75
sg565
I00
sbag2
(g36
g4
Ntp664
Rp665
(dp666
g569
I14
sg570
g2
(g42
g4
Ntp667
Rp668
(lp669
g2
(g46
g4
Ntp670
Rp671
(lp672
I0
ag2
(g50
g4
Ntp673
Rp674
(lp675
I0
aI0
abag580
abag2
(g55
g4
Ntp676
Rp677
(lp678
(F0.4781115579793584
F0.4753850755823864
F0.9592930362539924
tp679
a(F0.8852104030180744
F-0.46352945455188727
F0.037717007263528814
F-0.010973354750986165
tp680
ababsg586
I00
sg587
g2
(g63
g4
Ntp681
Rp682
(lp683
g2
(g46
g4
Ntp684
Rp685
(lp686
I0
ag2
(g50
g4
Ntp687
Rp688
(lp689
I1496533208
aI245363466
abaS'base_link'
p690
abaI14
aI0
ag2
(g42
g4
Ntp691
Rp692
(lp693
g2
(g46
g4
Ntp694
Rp695
(lp696
I0
ag2
(g50
g4
Ntp697
Rp698
(lp699
I0
aI0
abag83
abag2
(g55
g4
Ntp700
Rp701
(lp702
g2
(g87
g4
Ntp703
Rp704
(lp705
F0.7321760393223484
aF0.10359143549583637
aF0.8795991951373265
abag2
(g91
g4
Ntp706
Rp707
(lp708
F0.007243026462332535
aF-0.7082504011049415
aF0.05382220285794462
aF0.70386936172977
ababababsbasbsS'moveforward'
p709
g2
(g3
g4
Ntp710
Rp711
(dp712
g8
(lp713
g2
(g538
g4
Ntp714
Rp715
(dp716
g542
F0.4
sbasbsS'tuck'
p717
g2
(g3
g4
Ntp718
Rp719
(dp720
g8
(lp721
g2
(c__main__
TuckAction
p722
g4
Ntp723
Rp724
asbs.