(dp0
S'left1'
p1
ccopy_reg
_reconstructor
p2
(c__main__
DemonstrationProgram
p3
c__builtin__
object
p4
Ntp5
Rp6
(dp7
S'actions'
p8
(lp9
g2
(c__main__
GripperAction
p10
g4
Ntp11
Rp12
(dp13
S'open'
p14
I01
sS'effort'
p15
I50
sbag2
(c__main__
MoveAction
p16
g4
Ntp17
Rp18
(dp19
S'tagId'
p20
I14
sS'pose'
p21
g2
(cgeometry_msgs.msg._PoseStamped
PoseStamped
p22
g4
Ntp23
Rp24
(lp25
g2
(cstd_msgs.msg._Header
Header
p26
g4
Ntp27
Rp28
(lp29
I0
ag2
(cgenpy.rostime
Time
p30
g4
Ntp31
Rp32
(lp33
I0
aI0
abaS'base_link'
p34
abag2
(cgeometry_msgs.msg._Pose
Pose
p35
g4
Ntp36
Rp37
(lp38
(F0.4626368961246337
F0.3889668488624386
F0.9535023396206157
tp39
a(F0.950537669442874
F-0.30819448833644403
F0.024324298283532355
F0.03004371551857166
tp40
ababsS'absolute'
p41
I00
sS'former_tag_pose'
p42
g2
(car_track_alvar_msgs.msg._AlvarMarker
AlvarMarker
p43
g4
Ntp44
Rp45
(lp46
g2
(g26
g4
Ntp47
Rp48
(lp49
I0
ag2
(g30
g4
Ntp50
Rp51
(lp52
I1496534141
aI205934040
abaS'base_link'
p53
abaI14
aI0
ag2
(g22
g4
Ntp54
Rp55
(lp56
g2
(g26
g4
Ntp57
Rp58
(lp59
I0
ag2
(g30
g4
Ntp60
Rp61
(lp62
I0
aI0
abaS''
p63
abag2
(g35
g4
Ntp64
Rp65
(lp66
g2
(cgeometry_msgs.msg._Point
Point
p67
g4
Ntp68
Rp69
(lp70
F0.7252527426757105
aF0.13419302046011772
aF0.871857402561543
abag2
(cgeometry_msgs.msg._Quaternion
Quaternion
p71
g4
Ntp72
Rp73
(lp74
F0.02276620056518704
aF-0.7299667026057356
aF0.007320646103301811
aF0.6830642146528872
ababababsbag2
(g16
g4
Ntp75
Rp76
(dp77
g20
I14
sg21
g2
(g22
g4
Ntp78
Rp79
(lp80
g2
(g26
g4
Ntp81
Rp82
(lp83
I0
ag2
(g30
g4
Ntp84
Rp85
(lp86
I0
aI0
abag34
abag2
(g35
g4
Ntp87
Rp88
(lp89
(F0.6468799440450957
F0.260885318107394
F0.9197765179629508
tp90
a(F0.9123795827302879
F-0.4035003551124524
F-0.014027735133585077
F0.06748468780436728
tp91
ababsg41
I00
sg42
g2
(g43
g4
Ntp92
Rp93
(lp94
g2
(g26
g4
Ntp95
Rp96
(lp97
I0
ag2
(g30
g4
Ntp98
Rp99
(lp100
I1496534184
aI350368254
abaS'base_link'
p101
abaI14
aI0
ag2
(g22
g4
Ntp102
Rp103
(lp104
g2
(g26
g4
Ntp105
Rp106
(lp107
I0
ag2
(g30
g4
Ntp108
Rp109
(lp110
I0
aI0
abag63
abag2
(g35
g4
Ntp111
Rp112
(lp113
g2
(g67
g4
Ntp114
Rp115
(lp116
F0.7418500201472904
aF0.08300147264847257
aF0.873106496300779
abag2
(g71
g4
Ntp117
Rp118
(lp119
F0.04922835392408585
aF-0.7061637298613902
aF0.039106642618800876
aF0.7052517467551996
ababababsbag2
(g10
g4
Ntp120
Rp121
(dp122
g14
I00
sg15
I50
sbag2
(g16
g4
Ntp123
Rp124
(dp125
g20
I14
sg21
g2
(g22
g4
Ntp126
Rp127
(lp128
g2
(g26
g4
Ntp129
Rp130
(lp131
I0
ag2
(g30
g4
Ntp132
Rp133
(lp134
I0
aI0
abag34
abag2
(g35
g4
Ntp135
Rp136
(lp137
(F0.4192355359874485
F0.5484993065474577
F0.9318153584282448
tp138
a(F0.9884435673630128
F-0.13551990306958908
F0.019289055139814222
F0.06512758526541407
tp139
ababsg41
I00
sg42
g2
(g43
g4
Ntp140
Rp141
(lp142
g2
(g26
g4
Ntp143
Rp144
(lp145
I0
ag2
(g30
g4
Ntp146
Rp147
(lp148
I1496534198
aI865169994
abaS'base_link'
p149
abaI14
aI0
ag2
(g22
g4
Ntp150
Rp151
(lp152
g2
(g26
g4
Ntp153
Rp154
(lp155
I0
ag2
(g30
g4
Ntp156
Rp157
(lp158
I0
aI0
abag63
abag2
(g35
g4
Ntp159
Rp160
(lp161
g2
(g67
g4
Ntp162
Rp163
(lp164
F0.7434674599512965
aF0.08071062213802489
aF0.8722205218532126
abag2
(g71
g4
Ntp165
Rp166
(lp167
F0.028996865513394872
aF-0.7015389291432695
aF0.07833550799005197
aF0.7077187724476814
ababababsbasbsS'tuck'
p168
g2
(g3
g4
Ntp169
Rp170
(dp171
g8
(lp172
g2
(c__main__
TuckAction
p173
g4
Ntp174
Rp175
asbsS'b4thirdshelf'
p176
g2
(g3
g4
Ntp177
Rp178
(dp179
g8
(lp180
g2
(c__main__
TorsoAction
p181
g4
Ntp182
Rp183
(dp184
S'height'
p185
F0.4
sbag2
(c__main__
HeadAction
p186
g4
Ntp187
Rp188
(dp189
S'args'
p190
(lp191
S'pan_tilt'
p192
aS'0'
p193
aS'0.35'
p194
asS'torso'
p195
NsbasbsS'drop'
p196
g2
(g3
g4
Ntp197
Rp198
(dp199
g8
(lp200
g2
(g16
g4
Ntp201
Rp202
(dp203
S'tagId'
p204
NsS'pose'
p205
g2
(g22
g4
Ntp206
Rp207
(lp208
g2
(g26
g4
Ntp209
Rp210
(lp211
I0
ag2
(g30
g4
Ntp212
Rp213
(lp214
I0
aI0
abaS'base_link'
p215
abag2
(g35
g4
Ntp216
Rp217
(lp218
(F0.44461175000087944
F0.09821170863245346
F1.0499838979667877
tp219
a(F0.7008423562582952
F-0.6886521175082365
F0.1496052103729388
F0.11043791810339194
tp220
ababsS'absolute'
p221
I01
sS'former_tag_pose'
p222
Nsbag2
(g16
g4
Ntp223
Rp224
(dp225
g204
Nsg205
g2
(g22
g4
Ntp226
Rp227
(lp228
g2
(g26
g4
Ntp229
Rp230
(lp231
I0
ag2
(g30
g4
Ntp232
Rp233
(lp234
I0
aI0
abag215
abag2
(g35
g4
Ntp235
Rp236
(lp237
(F0.4220091618013227
F-0.14015606014869175
F0.9522968074264868
tp238
a(F-0.42394266992995167
F0.8928982010551284
F0.14938207047658755
F0.026275695714999592
tp239
ababsg221
I01
sg222
Nsbag2
(g16
g4
Ntp240
Rp241
(dp242
g204
Nsg205
g2
(g22
g4
Ntp243
Rp244
(lp245
g2
(g26
g4
Ntp246
Rp247
(lp248
I0
ag2
(g30
g4
Ntp249
Rp250
(lp251
I0
aI0
abag215
abag2
(g35
g4
Ntp252
Rp253
(lp254
(F0.24702433887002112
F-0.08771637463348067
F0.7717111216459742
tp255
a(F0.0036090275217821807
F0.8618130800539496
F0.3990859043049268
F0.31304253856846725
tp256
ababsg221
I01
sg222
Nsbag2
(g10
g4
Ntp257
Rp258
(dp259
S'open'
p260
I01
sS'effort'
p261
I50
sbasbsS'raise'
p262
g2
(g3
g4
Ntp263
Rp264
(dp265
g8
(lp266
g2
(g181
g4
Ntp267
Rp268
(dp269
S'height'
p270
F0.4
sbag2
(g16
g4
Ntp271
Rp272
(dp273
S'tagId'
p274
NsS'pose'
p275
g2
(g22
g4
Ntp276
Rp277
(lp278
g2
(g26
g4
Ntp279
Rp280
(lp281
I0
ag2
(g30
g4
Ntp282
Rp283
(lp284
I0
aI0
abaS'base_link'
p285
abag2
(g35
g4
Ntp286
Rp287
(lp288
(F0.2655515088195862
F-0.3102143400758556
F0.8837143519607871
tp289
a(F-0.075328088490117
F0.9702033289122473
F0.18217805565112144
F0.14086282579586393
tp290
ababsS'absolute'
p291
I01
sS'former_tag_pose'
p292
NsbasbsS'front'
p293
g2
(g3
g4
Ntp294
Rp295
(dp296
g8
(lp297
g2
(g10
g4
Ntp298
Rp299
(dp300
S'effort'
p301
I50
sS'open'
p302
I01
sbasbsS'moveback'
p303
g2
(g3
g4
Ntp304
Rp305
(dp306
g8
(lp307
g2
(c__main__
BaseAction
p308
g4
Ntp309
Rp310
(dp311
S'distance'
p312
F-0.4
sbasbsS'test'
p313
g2
(g3
g4
Ntp314
Rp315
(dp316
g8
(lp317
g2
(g10
g4
Ntp318
Rp319
(dp320
S'open'
p321
I00
sS'effort'
p322
I50
sbag2
(g10
g4
Ntp323
Rp324
(dp325
g321
I01
sg322
I50
sbasbsS'b4secondshelf'
p326
g2
(g3
g4
Ntp327
Rp328
(dp329
g8
(lp330
g2
(g181
g4
Ntp331
Rp332
(dp333
g185
F0.3
sbag2
(g186
g4
Ntp334
Rp335
(dp336
g190
(lp337
S'pan_tilt'
p338
ag193
aS'0.707'
p339
asg195
NsbasbsS'moveforward'
p340
g2
(g3
g4
Ntp341
Rp342
(dp343
g8
(lp344
g2
(g308
g4
Ntp345
Rp346
(dp347
g312
F0.4
sbasbsS'left'
p348
g2
(g3
g4
Ntp349
Rp350
(dp351
g8
(lp352
g2
(g10
g4
Ntp353
Rp354
(dp355
S'effort'
p356
I50
sS'open'
p357
I01
sbag2
(g16
g4
Ntp358
Rp359
(dp360
S'tagId'
p361
I14
sS'pose'
p362
g2
(g22
g4
Ntp363
Rp364
(lp365
g2
(g26
g4
Ntp366
Rp367
(lp368
I0
ag2
(g30
g4
Ntp369
Rp370
(lp371
I0
aI0
abaS'base_link'
p372
abag2
(g35
g4
Ntp373
Rp374
(lp375
(F0.4872819031230557
F0.38397392736332225
F0.9632060662837532
tp376
a(F0.9529142536510237
F-0.301712275748407
F0.0019917617647075433
F0.03033415132325887
tp377
ababsS'absolute'
p378
I00
sS'former_tag_pose'
p379
g2
(g43
g4
Ntp380
Rp381
(lp382
g2
(g26
g4
Ntp383
Rp384
(lp385
I0
ag2
(g30
g4
Ntp386
Rp387
(lp388
I1496533157
aI326106064
abaS'base_link'
p389
abaI14
aI0
ag2
(g22
g4
Ntp390
Rp391
(lp392
g2
(g26
g4
Ntp393
Rp394
(lp395
I0
ag2
(g30
g4
Ntp396
Rp397
(lp398
I0
aI0
abag63
abag2
(g35
g4
Ntp399
Rp400
(lp401
g2
(g67
g4
Ntp402
Rp403
(lp404
F0.7324142373168343
aF0.10347180459943907
aF0.8794920943996611
abag2
(g71
g4
Ntp405
Rp406
(lp407
F0.03326608023095315
aF-0.7108877729293341
aF0.027075541922043762
aF0.7019963370525995
ababababsbag2
(g16
g4
Ntp408
Rp409
(dp410
g361
I14
sg362
g2
(g22
g4
Ntp411
Rp412
(lp413
g2
(g26
g4
Ntp414
Rp415
(lp416
I0
ag2
(g30
g4
Ntp417
Rp418
(lp419
I0
aI0
abag372
abag2
(g35
g4
Ntp420
Rp421
(lp422
(F0.6948273201515593
F0.31606069232155404
F0.9255027011935303
tp423
a(F0.8309305535101029
F-0.5548663224349498
F0.039239544411053116
F-0.011748941455353473
tp424
ababsg378
I00
sg379
g2
(g43
g4
Ntp425
Rp426
(lp427
g2
(g26
g4
Ntp428
Rp429
(lp430
I0
ag2
(g30
g4
Ntp431
Rp432
(lp433
I1496533177
aI346788160
abaS'base_link'
p434
abaI14
aI0
ag2
(g22
g4
Ntp435
Rp436
(lp437
g2
(g26
g4
Ntp438
Rp439
(lp440
I0
ag2
(g30
g4
Ntp441
Rp442
(lp443
I0
aI0
abag63
abag2
(g35
g4
Ntp444
Rp445
(lp446
g2
(g67
g4
Ntp447
Rp448
(lp449
F0.7304341738253195
aF0.10521772665143997
aF0.8826459108222617
abag2
(g71
g4
Ntp450
Rp451
(lp452
F-9.108554312111957e-05
aF-0.7143130973979552
aF0.04490135400494384
aF0.6983843204122538
ababababsbag2
(g10
g4
Ntp453
Rp454
(dp455
g356
I50
sg357
I00
sbag2
(g16
g4
Ntp456
Rp457
(dp458
g361
I14
sg362
g2
(g22
g4
Ntp459
Rp460
(lp461
g2
(g26
g4
Ntp462
Rp463
(lp464
I0
ag2
(g30
g4
Ntp465
Rp466
(lp467
I0
aI0
abag372
abag2
(g35
g4
Ntp468
Rp469
(lp470
(F0.4781115579793584
F0.4753850755823864
F0.9592930362539924
tp471
a(F0.8852104030180744
F-0.46352945455188727
F0.037717007263528814
F-0.010973354750986165
tp472
ababsg378
I00
sg379
g2
(g43
g4
Ntp473
Rp474
(lp475
g2
(g26
g4
Ntp476
Rp477
(lp478
I0
ag2
(g30
g4
Ntp479
Rp480
(lp481
I1496533208
aI245363466
abaS'base_link'
p482
abaI14
aI0
ag2
(g22
g4
Ntp483
Rp484
(lp485
g2
(g26
g4
Ntp486
Rp487
(lp488
I0
ag2
(g30
g4
Ntp489
Rp490
(lp491
I0
aI0
abag63
abag2
(g35
g4
Ntp492
Rp493
(lp494
g2
(g67
g4
Ntp495
Rp496
(lp497
F0.7321760393223484
aF0.10359143549583637
aF0.8795991951373265
abag2
(g71
g4
Ntp498
Rp499
(lp500
F0.007243026462332535
aF-0.7082504011049415
aF0.05382220285794462
aF0.70386936172977
ababababsbasbs.