(dp0
S'station4'
p1
ccopy_reg
_reconstructor
p2
(cgeometry_msgs.msg._PoseWithCovarianceStamped
PoseWithCovarianceStamped
p3
c__builtin__
object
p4
Ntp5
Rp6
(lp7
g2
(cstd_msgs.msg._Header
Header
p8
g4
Ntp9
Rp10
(lp11
I13
ag2
(cgenpy.rostime
Time
p12
g4
Ntp13
Rp14
(lp15
I2627
aI800000000
abaS'map'
p16
abag2
(cgeometry_msgs.msg._PoseWithCovariance
PoseWithCovariance
p17
g4
Ntp18
Rp19
(lp20
g2
(cgeometry_msgs.msg._Pose
Pose
p21
g4
Ntp22
Rp23
(lp24
g2
(cgeometry_msgs.msg._Point
Point
p25
g4
Ntp26
Rp27
(lp28
F-4.435415744781494
aF5.739353179931641
aF0.0
abag2
(cgeometry_msgs.msg._Quaternion
Quaternion
p29
g4
Ntp30
Rp31
(lp32
F5.960464477539063e-08
aF0.0
aF-0.9999999403953552
aF-4.371138828673793e-08
ababa(F0.026051430136886378
F0.008401725127717974
F0.0
F0.0
F0.0
F0.0
F0.008401725127717086
F0.01249206775556111
F0.0
F0.0
F0.0
F0.0
F0.0
F0.0
F0.0
F0.0
F0.0
F0.0
F0.0
F0.0
F0.0
F0.0
F0.0
F0.0
F0.0
F0.0
F0.0
F0.0
F0.0
F0.0
F0.0
F0.0
F0.0
F0.0
F0.0
F0.023994344593084242
tp33
ababsS'cashier'
p34
g2
(g3
g4
Ntp35
Rp36
(lp37
g2
(g8
g4
Ntp38
Rp39
(lp40
I14
ag2
(g12
g4
Ntp41
Rp42
(lp43
I3589
aI3000000
abaS'map'
p44
abag2
(g17
g4
Ntp45
Rp46
(lp47
g2
(g21
g4
Ntp48
Rp49
(lp50
g2
(g25
g4
Ntp51
Rp52
(lp53
F-2.054438591003418
aF2.333836317062378
aF0.0
abag2
(g29
g4
Ntp54
Rp55
(lp56
F3.428509742775532e-08
aF1.8730041517756035e-08
aF-0.7257111072540283
aF0.6879996061325073
ababa(F0.008161020635100158
F0.003077700350786472
F0.0
F0.0
F0.0
F0.0
F0.003077700350786472
F0.009350625094199927
F0.0
F0.0
F0.0
F0.0
F0.0
F0.0
F0.0
F0.0
F0.0
F0.0
F0.0
F0.0
F0.0
F0.0
F0.0
F0.0
F0.0
F0.0
F0.0
F0.0
F0.0
F0.0
F0.0
F0.0
F0.0
F0.0
F0.0
F0.00621587958788735
tp57
ababsS'station1'
p58
g2
(g3
g4
Ntp59
Rp60
(lp61
g2
(g8
g4
Ntp62
Rp63
(lp64
I15
ag2
(g12
g4
Ntp65
Rp66
(lp67
I2827
aI489000000
abaS'map'
p68
abag2
(g17
g4
Ntp69
Rp70
(lp71
g2
(g21
g4
Ntp72
Rp73
(lp74
g2
(g25
g4
Ntp75
Rp76
(lp77
F-4.4720587730407715
aF2.003910541534424
aF0.0
abag2
(g29
g4
Ntp78
Rp79
(lp80
F9.337687743027345e-07
aF1.569397113598825e-06
aF-0.9998983144760132
aF0.01426047645509243
ababa(F0.01883946452438323
F-0.004792013025902264
F0.0
F0.0
F0.0
F0.0
F-0.004792013025902264
F0.06499112803377471
F0.0
F0.0
F0.0
F0.0
F0.0
F0.0
F0.0
F0.0
F0.0
F0.0
F0.0
F0.0
F0.0
F0.0
F0.0
F0.0
F0.0
F0.0
F0.0
F0.0
F0.0
F0.0
F0.0
F0.0
F0.0
F0.0
F0.0
F0.05267450336477375
tp81
ababsS'station2'
p82
g2
(g3
g4
Ntp83
Rp84
(lp85
g2
(g8
g4
Ntp86
Rp87
(lp88
I11
ag2
(g12
g4
Ntp89
Rp90
(lp91
I2403
aI389000000
abaS'map'
p92
abag2
(g17
g4
Ntp93
Rp94
(lp95
g2
(g21
g4
Ntp96
Rp97
(lp98
g2
(g25
g4
Ntp99
Rp100
(lp101
F-4.491474151611328
aF3.237354278564453
aF0.0
abag2
(g29
g4
Ntp102
Rp103
(lp104
F7.179285148595227e-07
aF1.3338969040432858e-07
aF-0.9999672174453735
aF0.008096990175545216
ababa(F0.013926791792029491
F-0.0074216811747922495
F0.0
F0.0
F0.0
F0.0
F-0.0074216811747922495
F0.01839423272887908
F0.0
F0.0
F0.0
F0.0
F0.0
F0.0
F0.0
F0.0
F0.0
F0.0
F0.0
F0.0
F0.0
F0.0
F0.0
F0.0
F0.0
F0.0
F0.0
F0.0
F0.0
F0.0
F0.0
F0.0
F0.0
F0.0
F0.0
F0.00997759642965297
tp105
ababsS'station3'
p106
g2
(g3
g4
Ntp107
Rp108
(lp109
g2
(g8
g4
Ntp110
Rp111
(lp112
I10
ag2
(g12
g4
Ntp113
Rp114
(lp115
I2922
aI576000000
abaS'map'
p116
abag2
(g17
g4
Ntp117
Rp118
(lp119
g2
(g21
g4
Ntp120
Rp121
(lp122
g2
(g25
g4
Ntp123
Rp124
(lp125
F-4.4593963623046875
aF4.4565229415893555
aF0.0
abag2
(g29
g4
Ntp126
Rp127
(lp128
F4.237227585690562e-06
aF7.002066922723316e-06
aF-0.9999951124191284
aF0.0031259378883987665
ababa(F0.01195901797657939
F0.008026195870566966
F0.0
F0.0
F0.0
F0.0
F0.008026195870570518
F0.060886190256653094
F0.0
F0.0
F0.0
F0.0
F0.0
F0.0
F0.0
F0.0
F0.0
F0.0
F0.0
F0.0
F0.0
F0.0
F0.0
F0.0
F0.0
F0.0
F0.0
F0.0
F0.0
F0.0
F0.0
F0.0
F0.0
F0.0
F0.0
F0.04060949069555033
tp129
ababs.