(dp0
S'cashier'
p1
ccopy_reg
_reconstructor
p2
(cgeometry_msgs.msg._PoseWithCovarianceStamped
PoseWithCovarianceStamped
p3
c__builtin__
object
p4
Ntp5
Rp6
(lp7
g2
(cstd_msgs.msg._Header
Header
p8
g4
Ntp9
Rp10
(lp11
I9
ag2
(cgenpy.rostime
Time
p12
g4
Ntp13
Rp14
(lp15
I1496594073
aI939681397
abaS'map'
p16
abag2
(cgeometry_msgs.msg._PoseWithCovariance
PoseWithCovariance
p17
g4
Ntp18
Rp19
(lp20
g2
(cgeometry_msgs.msg._Pose
Pose
p21
g4
Ntp22
Rp23
(lp24
g2
(cgeometry_msgs.msg._Point
Point
p25
g4
Ntp26
Rp27
(lp28
F0.012246429920196533
aF-0.21541820466518402
aF0.0
abag2
(cgeometry_msgs.msg._Quaternion
Quaternion
p29
g4
Ntp30
Rp31
(lp32
F-1.2769041823901262e-08
aF-2.0010805457104652e-08
aF-0.04121581092476845
aF0.999150276184082
ababa(F0.02103751557867953
F-0.01052696034478803
F0.0
F0.0
F0.0
F0.0
F-0.010526960344788026
F0.05282987858995697
F0.0
F0.0
F0.0
F0.0
F0.0
F0.0
F0.0
F0.0
F0.0
F0.0
F0.0
F0.0
F0.0
F0.0
F0.0
F0.0
F0.0
F0.0
F0.0
F0.0
F0.0
F0.0
F0.0
F0.0
F0.0
F0.0
F0.0
F0.0667464057866868
tp33
ababsS'station1'
p34
g6
s.